CCS PCM C Compiler, Version 5.015, 5967               20-Mar-26 14:27

               Filename:   C:\Users\verte\OneDrive\Máy tính\baitaplon\main.lst

               ROM used:   3999 words (49%)
                           Largest free fragment is 2048
               RAM used:   87 (24%) at main() level
                           102 (28%) worst case
               Stack used: 3 locations
               Stack size: 8

*
0000:  MOVLW  0A
0001:  MOVWF  0A
0002:  GOTO   24B
0003:  NOP
.................... #include <16F877A.h> 
.................... //////////// Standard Header file for the PIC16F877A device //////////////// 
.................... /////////////////////////////////////////////////////////////////////////// 
.................... ////        (C) Copyright 1996, 2013 Custom Computer Services          //// 
.................... //// This source code may only be used by licensed users of the CCS C  //// 
.................... //// compiler.  This source code may only be distributed to other      //// 
.................... //// licensed users of the CCS C compiler.  No other use, reproduction //// 
.................... //// or distribution is permitted without written permission.          //// 
.................... //// Derivative programs created using this software in object code    //// 
.................... //// form are not restricted in any way.                               //// 
.................... /////////////////////////////////////////////////////////////////////////// 
.................... #device PIC16F877A 
0004:  BCF    0A.0
0005:  BCF    0A.1
0006:  BCF    0A.2
0007:  ADDWF  02,F
0008:  RETLW  01
0009:  RETLW  02
000A:  RETLW  03
000B:  RETLW  04
000C:  RETLW  05
000D:  RETLW  06
000E:  RETLW  07
000F:  RETLW  08
0010:  RETLW  09
0011:  RETLW  00
*
0085:  CLRF   77
0086:  CLRF   78
0087:  MOVF   74,W
0088:  BCF    03.0
0089:  BTFSC  75.0
008A:  ADDWF  77,F
008B:  RRF    77,F
008C:  RRF    78,F
008D:  BTFSC  75.1
008E:  ADDWF  77,F
008F:  RRF    77,F
0090:  RRF    78,F
0091:  BTFSC  75.2
0092:  ADDWF  77,F
0093:  RRF    77,F
0094:  RRF    78,F
0095:  BTFSC  75.3
0096:  ADDWF  77,F
0097:  RRF    77,F
0098:  RRF    78,F
0099:  BTFSC  75.4
009A:  ADDWF  77,F
009B:  RRF    77,F
009C:  RRF    78,F
009D:  BTFSC  75.5
009E:  ADDWF  77,F
009F:  RRF    77,F
00A0:  RRF    78,F
00A1:  BTFSC  75.6
00A2:  ADDWF  77,F
00A3:  RRF    77,F
00A4:  RRF    78,F
00A5:  BTFSC  75.7
00A6:  ADDWF  77,F
00A7:  RRF    77,F
00A8:  RRF    78,F
00A9:  RETURN
*
011A:  MOVLW  8E
011B:  MOVWF  77
011C:  MOVF   71,W
011D:  MOVWF  78
011E:  MOVF   70,W
011F:  MOVWF  79
0120:  CLRF   7A
0121:  MOVF   78,F
0122:  BTFSS  03.2
0123:  GOTO   12E
0124:  MOVF   79,W
0125:  MOVWF  78
0126:  CLRF   79
0127:  MOVLW  08
0128:  SUBWF  77,F
0129:  MOVF   78,F
012A:  BTFSS  03.2
012B:  GOTO   12E
012C:  CLRF   77
012D:  GOTO   136
012E:  BCF    03.0
012F:  BTFSC  78.7
0130:  GOTO   135
0131:  RLF    79,F
0132:  RLF    78,F
0133:  DECF   77,F
0134:  GOTO   12E
0135:  BCF    78.7
0136:  BSF    0A.3
0137:  BCF    0A.4
0138:  GOTO   2F5 (RETURN)
0139:  MOVF   70,W
013A:  BTFSC  03.2
013B:  GOTO   1B8
013C:  BSF    03.5
013D:  MOVWF  20
013E:  MOVF   7B,W
013F:  BTFSS  03.2
0140:  GOTO   143
0141:  BCF    03.5
0142:  GOTO   1B8
0143:  ADDWF  20,F
0144:  BTFSC  03.0
0145:  GOTO   151
0146:  MOVLW  7F
0147:  SUBWF  20,F
0148:  BTFSC  03.0
0149:  GOTO   14C
014A:  BCF    03.5
014B:  GOTO   1B8
014C:  BTFSS  03.2
014D:  GOTO   150
014E:  BCF    03.5
014F:  GOTO   1B8
0150:  GOTO   157
0151:  MOVLW  81
0152:  ADDWF  20,F
0153:  BTFSS  03.0
0154:  GOTO   157
0155:  BCF    03.5
0156:  GOTO   1B8
0157:  MOVF   20,W
0158:  MOVWF  77
0159:  CLRF   78
015A:  CLRF   79
015B:  CLRF   7A
015C:  MOVF   71,W
015D:  MOVWF  24
015E:  BSF    24.7
015F:  MOVF   72,W
0160:  MOVWF  23
0161:  MOVF   73,W
0162:  MOVWF  22
0163:  MOVLW  18
0164:  MOVWF  20
0165:  CLRF   21
0166:  BTFSS  22.0
0167:  GOTO   180
0168:  MOVF   7E,W
0169:  ADDWF  7A,F
016A:  BTFSS  03.0
016B:  GOTO   172
016C:  INCF   79,F
016D:  BTFSS  03.2
016E:  GOTO   172
016F:  INCF   78,F
0170:  BTFSC  03.2
0171:  BSF    21.7
0172:  MOVF   7D,W
0173:  ADDWF  79,F
0174:  BTFSS  03.0
0175:  GOTO   179
0176:  INCF   78,F
0177:  BTFSC  03.2
0178:  BSF    21.7
0179:  MOVF   7C,W
017A:  MOVWF  72
017B:  BSF    72.7
017C:  MOVF   72,W
017D:  ADDWF  78,F
017E:  BTFSC  03.0
017F:  BSF    21.7
0180:  RLF    21,F
0181:  RRF    78,F
0182:  RRF    79,F
0183:  RRF    7A,F
0184:  RRF    24,F
0185:  RRF    23,F
0186:  RRF    22,F
0187:  BCF    03.0
0188:  DECFSZ 20,F
0189:  GOTO   165
018A:  MOVLW  01
018B:  ADDWF  77,F
018C:  BTFSS  03.0
018D:  GOTO   190
018E:  BCF    03.5
018F:  GOTO   1B8
0190:  BTFSC  78.7
0191:  GOTO   19A
0192:  RLF    24,F
0193:  RLF    7A,F
0194:  RLF    79,F
0195:  RLF    78,F
0196:  DECFSZ 77,F
0197:  GOTO   19A
0198:  BCF    03.5
0199:  GOTO   1B8
019A:  BTFSS  24.7
019B:  GOTO   1AD
019C:  INCF   7A,F
019D:  BTFSS  03.2
019E:  GOTO   1AD
019F:  INCF   79,F
01A0:  BTFSS  03.2
01A1:  GOTO   1AD
01A2:  INCF   78,F
01A3:  BTFSS  03.2
01A4:  GOTO   1AD
01A5:  RRF    78,F
01A6:  RRF    79,F
01A7:  RRF    7A,F
01A8:  INCF   77,F
01A9:  BTFSS  03.2
01AA:  GOTO   1AD
01AB:  BCF    03.5
01AC:  GOTO   1B8
01AD:  MOVF   71,W
01AE:  MOVWF  21
01AF:  MOVF   7C,W
01B0:  XORWF  21,F
01B1:  BTFSS  21.7
01B2:  GOTO   1B5
01B3:  BSF    78.7
01B4:  GOTO   1BD
01B5:  BCF    78.7
01B6:  GOTO   1BD
01B7:  BCF    03.5
01B8:  CLRF   77
01B9:  CLRF   78
01BA:  CLRF   79
01BB:  CLRF   7A
01BC:  BSF    03.5
01BD:  BCF    03.5
01BE:  BSF    0A.3
01BF:  BCF    0A.4
01C0:  GOTO   307 (RETURN)
01C1:  MOVF   72,W
01C2:  BTFSC  03.2
01C3:  GOTO   293
01C4:  BSF    03.5
01C5:  MOVWF  24
01C6:  MOVF   7B,W
01C7:  BTFSS  03.2
01C8:  GOTO   1CB
01C9:  BCF    03.5
01CA:  GOTO   293
01CB:  SUBWF  24,F
01CC:  BTFSS  03.0
01CD:  GOTO   1D5
01CE:  MOVLW  7F
01CF:  ADDWF  24,F
01D0:  BTFSS  03.0
01D1:  GOTO   1D4
01D2:  BCF    03.5
01D3:  GOTO   293
01D4:  GOTO   1DF
01D5:  MOVLW  81
01D6:  SUBWF  24,F
01D7:  BTFSC  03.0
01D8:  GOTO   1DB
01D9:  BCF    03.5
01DA:  GOTO   293
01DB:  BTFSS  03.2
01DC:  GOTO   1DF
01DD:  BCF    03.5
01DE:  GOTO   293
01DF:  MOVF   24,W
01E0:  MOVWF  77
01E1:  CLRF   78
01E2:  CLRF   79
01E3:  CLRF   7A
01E4:  CLRF   23
01E5:  MOVF   73,W
01E6:  MOVWF  22
01E7:  BSF    22.7
01E8:  MOVF   74,W
01E9:  MOVWF  21
01EA:  MOVF   75,W
01EB:  MOVWF  20
01EC:  MOVLW  19
01ED:  MOVWF  24
01EE:  MOVF   7E,W
01EF:  SUBWF  20,F
01F0:  BTFSC  03.0
01F1:  GOTO   202
01F2:  MOVLW  01
01F3:  SUBWF  21,F
01F4:  BTFSC  03.0
01F5:  GOTO   202
01F6:  SUBWF  22,F
01F7:  BTFSC  03.0
01F8:  GOTO   202
01F9:  SUBWF  23,F
01FA:  BTFSC  03.0
01FB:  GOTO   202
01FC:  INCF   23,F
01FD:  INCF   22,F
01FE:  INCF   21,F
01FF:  MOVF   7E,W
0200:  ADDWF  20,F
0201:  GOTO   234
0202:  MOVF   7D,W
0203:  SUBWF  21,F
0204:  BTFSC  03.0
0205:  GOTO   21D
0206:  MOVLW  01
0207:  SUBWF  22,F
0208:  BTFSC  03.0
0209:  GOTO   21D
020A:  SUBWF  23,F
020B:  BTFSC  03.0
020C:  GOTO   21D
020D:  INCF   23,F
020E:  INCF   22,F
020F:  MOVF   7D,W
0210:  ADDWF  21,F
0211:  MOVF   7E,W
0212:  ADDWF  20,F
0213:  BTFSS  03.0
0214:  GOTO   234
0215:  INCF   21,F
0216:  BTFSS  03.2
0217:  GOTO   234
0218:  INCF   22,F
0219:  BTFSS  03.2
021A:  GOTO   234
021B:  INCF   23,F
021C:  GOTO   234
021D:  MOVF   7C,W
021E:  IORLW  80
021F:  SUBWF  22,F
0220:  BTFSC  03.0
0221:  GOTO   233
0222:  MOVLW  01
0223:  SUBWF  23,F
0224:  BTFSC  03.0
0225:  GOTO   233
0226:  INCF   23,F
0227:  MOVF   7C,W
0228:  IORLW  80
0229:  ADDWF  22,F
022A:  MOVF   7D,W
022B:  ADDWF  21,F
022C:  BTFSS  03.0
022D:  GOTO   211
022E:  INCF   22,F
022F:  BTFSS  03.2
0230:  GOTO   211
0231:  INCF   23,F
0232:  GOTO   211
0233:  BSF    7A.0
0234:  DECFSZ 24,F
0235:  GOTO   237
0236:  GOTO   242
0237:  BCF    03.0
0238:  RLF    20,F
0239:  RLF    21,F
023A:  RLF    22,F
023B:  RLF    23,F
023C:  BCF    03.0
023D:  RLF    7A,F
023E:  RLF    79,F
023F:  RLF    78,F
0240:  RLF    25,F
0241:  GOTO   1EE
0242:  BTFSS  25.0
0243:  GOTO   24A
0244:  BCF    03.0
0245:  RRF    78,F
0246:  RRF    79,F
0247:  RRF    7A,F
0248:  RRF    25,F
0249:  GOTO   24E
024A:  DECFSZ 77,F
024B:  GOTO   24E
024C:  BCF    03.5
024D:  GOTO   293
024E:  BTFSC  25.7
024F:  GOTO   277
0250:  BCF    03.0
0251:  RLF    20,F
0252:  RLF    21,F
0253:  RLF    22,F
0254:  RLF    23,F
0255:  MOVF   7E,W
0256:  SUBWF  20,F
0257:  BTFSC  03.0
0258:  GOTO   263
0259:  MOVLW  01
025A:  SUBWF  21,F
025B:  BTFSC  03.0
025C:  GOTO   263
025D:  SUBWF  22,F
025E:  BTFSC  03.0
025F:  GOTO   263
0260:  SUBWF  23,F
0261:  BTFSS  03.0
0262:  GOTO   288
0263:  MOVF   7D,W
0264:  SUBWF  21,F
0265:  BTFSC  03.0
0266:  GOTO   26E
0267:  MOVLW  01
0268:  SUBWF  22,F
0269:  BTFSC  03.0
026A:  GOTO   26E
026B:  SUBWF  23,F
026C:  BTFSS  03.0
026D:  GOTO   288
026E:  MOVF   7C,W
026F:  IORLW  80
0270:  SUBWF  22,F
0271:  BTFSC  03.0
0272:  GOTO   277
0273:  MOVLW  01
0274:  SUBWF  23,F
0275:  BTFSS  03.0
0276:  GOTO   288
0277:  INCF   7A,F
0278:  BTFSS  03.2
0279:  GOTO   288
027A:  INCF   79,F
027B:  BTFSS  03.2
027C:  GOTO   288
027D:  INCF   78,F
027E:  BTFSS  03.2
027F:  GOTO   288
0280:  INCF   77,F
0281:  BTFSS  03.2
0282:  GOTO   285
0283:  BCF    03.5
0284:  GOTO   293
0285:  RRF    78,F
0286:  RRF    79,F
0287:  RRF    7A,F
0288:  MOVF   73,W
0289:  MOVWF  24
028A:  MOVF   7C,W
028B:  XORWF  24,F
028C:  BTFSS  24.7
028D:  GOTO   290
028E:  BSF    78.7
028F:  GOTO   298
0290:  BCF    78.7
0291:  GOTO   298
0292:  BCF    03.5
0293:  CLRF   77
0294:  CLRF   78
0295:  CLRF   79
0296:  CLRF   7A
0297:  BSF    03.5
0298:  BCF    03.5
0299:  BSF    0A.3
029A:  BCF    0A.4
029B:  GOTO   320 (RETURN)
029C:  MOVLW  8E
029D:  MOVWF  77
029E:  MOVF   6E,W
029F:  SUBWF  77,F
02A0:  MOVF   6F,W
02A1:  MOVWF  79
02A2:  MOVF   70,W
02A3:  MOVWF  78
02A4:  BSF    79.7
02A5:  MOVF   77,F
02A6:  BTFSC  03.2
02A7:  GOTO   2B3
02A8:  BCF    03.0
02A9:  MOVF   79,F
02AA:  BTFSS  03.2
02AB:  GOTO   2AF
02AC:  MOVF   78,F
02AD:  BTFSC  03.2
02AE:  GOTO   2B3
02AF:  RRF    79,F
02B0:  RRF    78,F
02B1:  DECFSZ 77,F
02B2:  GOTO   2A8
02B3:  BTFSS  6F.7
02B4:  GOTO   2BA
02B5:  COMF   78,F
02B6:  COMF   79,F
02B7:  INCF   78,F
02B8:  BTFSC  03.2
02B9:  INCF   79,F
02BA:  BSF    0A.3
02BB:  BCF    0A.4
02BC:  GOTO   33B (RETURN)
02BD:  CLRF   78
02BE:  CLRF   79
02BF:  CLRF   77
02C0:  CLRF   7A
02C1:  MOVF   73,W
02C2:  BTFSS  03.2
02C3:  GOTO   2C7
02C4:  MOVF   72,W
02C5:  BTFSC  03.2
02C6:  GOTO   2E1
02C7:  MOVLW  10
02C8:  MOVWF  74
02C9:  BCF    03.0
02CA:  RLF    70,F
02CB:  RLF    71,F
02CC:  RLF    77,F
02CD:  RLF    7A,F
02CE:  MOVF   73,W
02CF:  SUBWF  7A,W
02D0:  BTFSS  03.2
02D1:  GOTO   2D4
02D2:  MOVF   72,W
02D3:  SUBWF  77,W
02D4:  BTFSS  03.0
02D5:  GOTO   2DD
02D6:  MOVF   72,W
02D7:  SUBWF  77,F
02D8:  BTFSS  03.0
02D9:  DECF   7A,F
02DA:  MOVF   73,W
02DB:  SUBWF  7A,F
02DC:  BSF    03.0
02DD:  RLF    78,F
02DE:  RLF    79,F
02DF:  DECFSZ 74,F
02E0:  GOTO   2C9
02E1:  RETURN
*
0359:  MOVF   71,W
035A:  XORWF  73,W
035B:  ANDLW  80
035C:  MOVWF  75
035D:  BTFSS  71.7
035E:  GOTO   364
035F:  COMF   70,F
0360:  COMF   71,F
0361:  INCF   70,F
0362:  BTFSC  03.2
0363:  INCF   71,F
0364:  BTFSS  73.7
0365:  GOTO   36B
0366:  COMF   72,F
0367:  COMF   73,F
0368:  INCF   72,F
0369:  BTFSC  03.2
036A:  INCF   73,F
036B:  CLRF   78
036C:  CLRF   79
036D:  CLRF   77
036E:  CLRF   7A
036F:  MOVF   73,W
0370:  BTFSS  03.2
0371:  GOTO   375
0372:  MOVF   72,W
0373:  BTFSC  03.2
0374:  GOTO   38F
0375:  MOVLW  10
0376:  MOVWF  74
0377:  BCF    03.0
0378:  RLF    70,F
0379:  RLF    71,F
037A:  RLF    77,F
037B:  RLF    7A,F
037C:  MOVF   73,W
037D:  SUBWF  7A,W
037E:  BTFSS  03.2
037F:  GOTO   382
0380:  MOVF   72,W
0381:  SUBWF  77,W
0382:  BTFSS  03.0
0383:  GOTO   38B
0384:  MOVF   72,W
0385:  SUBWF  77,F
0386:  BTFSS  03.0
0387:  DECF   7A,F
0388:  MOVF   73,W
0389:  SUBWF  7A,F
038A:  BSF    03.0
038B:  RLF    78,F
038C:  RLF    79,F
038D:  DECFSZ 74,F
038E:  GOTO   377
038F:  BTFSS  75.7
0390:  GOTO   396
0391:  COMF   78,F
0392:  COMF   79,F
0393:  INCF   78,F
0394:  BTFSC  03.2
0395:  INCF   79,F
0396:  RETURN
*
0667:  MOVLW  10
0668:  MOVWF  72
0669:  CLRF   77
066A:  CLRF   7A
066B:  RRF    6F,F
066C:  RRF    6E,F
066D:  BTFSS  03.0
066E:  GOTO   675
066F:  MOVF   70,W
0670:  ADDWF  77,F
0671:  BTFSC  03.0
0672:  INCF   7A,F
0673:  MOVF   71,W
0674:  ADDWF  7A,F
0675:  RRF    7A,F
0676:  RRF    77,F
0677:  RRF    79,F
0678:  RRF    78,F
0679:  DECFSZ 72,F
067A:  GOTO   66B
067B:  RETURN
067C:  MOVF   7B,W
067D:  CLRF   78
067E:  SUBWF  76,W
067F:  BTFSC  03.0
0680:  GOTO   684
0681:  MOVF   76,W
0682:  MOVWF  77
0683:  GOTO   690
0684:  CLRF   77
0685:  MOVLW  08
0686:  MOVWF  7C
0687:  RLF    76,F
0688:  RLF    77,F
0689:  MOVF   7B,W
068A:  SUBWF  77,W
068B:  BTFSC  03.0
068C:  MOVWF  77
068D:  RLF    78,F
068E:  DECFSZ 7C,F
068F:  GOTO   687
0690:  RETURN
....................  
.................... #list 
....................  
.................... #fuses HS, NOWDT, NOPROTECT, NOLVP       
.................... #device ADC=10 
.................... #use delay(clock=20M) 
*
0345:  MOVLW  6E
0346:  MOVWF  04
0347:  BCF    03.7
0348:  MOVF   00,W
0349:  BTFSC  03.2
034A:  GOTO   358
034B:  MOVLW  06
034C:  MOVWF  78
034D:  CLRF   77
034E:  DECFSZ 77,F
034F:  GOTO   34E
0350:  DECFSZ 78,F
0351:  GOTO   34D
0352:  MOVLW  7B
0353:  MOVWF  77
0354:  DECFSZ 77,F
0355:  GOTO   354
0356:  DECFSZ 00,F
0357:  GOTO   34B
0358:  RETURN
.................... #use I2C(MASTER, I2C1, SLOW = 100000, STREAM = DS1307_STREAM) 
*
0012:  BCF    14.7
0013:  BCF    0C.3
0014:  MOVF   73,W
0015:  MOVWF  13
0016:  MOVLW  02
0017:  BTFSC  14.7
0018:  GOTO   020
0019:  BTFSS  0C.3
001A:  GOTO   019
001B:  MOVLW  00
001C:  BSF    03.5
001D:  BTFSC  11.6
001E:  MOVLW  01
001F:  BCF    03.5
0020:  MOVWF  78
0021:  RETURN
0022:  BCF    14.6
0023:  BSF    03.5
0024:  BSF    11.3
0025:  BTFSC  11.3
0026:  GOTO   025
0027:  BTFSC  77.0
0028:  BCF    11.5
0029:  BTFSS  77.0
002A:  BSF    11.5
002B:  BSF    11.4
002C:  BTFSC  11.4
002D:  GOTO   02C
002E:  BCF    03.5
002F:  MOVF   13,W
0030:  MOVWF  78
0031:  RETURN
.................... #include <DS1307.c>   
.................... /////////////////////////////////////////////////////////////////////////// 
.................... ////                                                                   //// 
.................... ////                             DS1307.c                              //// 
.................... ////                                                                   //// 
.................... ////                      Driver for CCS C compiler                    //// 
.................... ////                                                                   //// 
.................... ////     Driver for Maxim DS1307 serial I2C real-time clock (RTC).     //// 
.................... ////                                                                   //// 
.................... /////////////////////////////////////////////////////////////////////////// 
.................... ////                                                                   //// 
.................... ////                     https://simple-circuit.com/                   //// 
.................... ////                                                                   //// 
.................... /////////////////////////////////////////////////////////////////////////// 
....................  
....................  
.................... #if defined DS1307_I2C_NO_STREAM 
....................   #define RTC_I2C_START()   i2c_start() 
....................   #define RTC_I2C_STOP()    i2c_stop() 
....................   #define RTC_I2C_WRITE(x)  i2c_write(x) 
....................   #define RTC_I2C_READ(x)   i2c_read(x) 
.................... #elif defined DS1307_I2C_STREAM 
....................   #define RTC_I2C_START()   i2c_start(DS1307_I2C_STREAM) 
....................   #define RTC_I2C_STOP()    i2c_stop(DS1307_I2C_STREAM) 
....................   #define RTC_I2C_WRITE(x)  i2c_write(DS1307_I2C_STREAM, x) 
....................   #define RTC_I2C_READ(x)   i2c_read(DS1307_I2C_STREAM, x) 
.................... #else 
....................   #define RTC_I2C_START()   i2c_start(DS1307_STREAM) 
....................   #define RTC_I2C_STOP()    i2c_stop(DS1307_STREAM) 
....................   #define RTC_I2C_WRITE(x)  i2c_write(DS1307_STREAM, x) 
....................   #define RTC_I2C_READ(x)   i2c_read(DS1307_STREAM, x) 
.................... #endif 
....................  
.................... #include <stdint.h> 
.................... /////////////////////////////////////////////////////////////////////////// 
.................... ////                                                                   //// 
.................... ////                           stdint.h                                //// 
.................... ////                                                                   //// 
.................... //// Standard integer definitions.                                     //// 
.................... ////                                                                   //// 
.................... /////////////////////////////////////////////////////////////////////////// 
.................... ////        (C) Copyright 1996,2008 Custom Computer Services           //// 
.................... //// This source code may only be used by licensed users of the CCS C  //// 
.................... //// compiler.  This source code may only be distributed to other      //// 
.................... //// licensed users of the CCS C compiler.  No other use, reproduction //// 
.................... //// or distribution is permitted without written permission.          //// 
.................... //// Derivative programs created using this software in object code    //// 
.................... //// form are not restricted in any way.                               //// 
.................... /////////////////////////////////////////////////////////////////////////// 
....................  
.................... #ifndef _STDINT 
....................  
.................... #define _STDINT 
....................  
.................... //////////// exact width 
....................  
.................... typedef signed int8 int8_t; 
.................... typedef unsigned int8 uint8_t; 
.................... typedef signed int16 int16_t; 
.................... typedef unsigned int16 uint16_t; 
.................... typedef signed int32 int32_t; 
.................... typedef unsigned int32 uint32_t; 
....................  
.................... #if defined(__PCD__) 
.................... //typedef signed int24 int24_t; 
.................... //typedef unsigned int24 uint24_t; 
.................... typedef signed int64 int64_t; 
.................... typedef unsigned int64 uint64_t; 
.................... #endif 
....................  
.................... #define INT8_MAX  (128) 
.................... #define INT8_MIN  (-127) 
.................... #define UINT8_MAX (255) 
....................  
.................... #define INT16_MAX  (32767) 
.................... #define INT16_MIN  (-32768) 
.................... #define UINT16_MAX (65535) 
....................  
.................... #define INT32_MAX  (2147483647) 
.................... #define INT32_MIN  (-2147483648) 
.................... #define UINT32_MAX (4294967295) 
....................  
.................... #if defined(__PCD__) 
.................... //#define INT24_MAX  (8388607) 
.................... //#define INT24_MIN  (-8388608) 
.................... //#define UINT24_MAX (16777215) 
....................  
.................... #define INT64_MAX  (9223372036854775807) 
.................... #define INT64_MIN  (-9223372036854775808) 
.................... #define UINT64_MAX (18446744073709551615) 
.................... #endif 
....................  
.................... ///////// minimum width 
....................  
.................... typedef signed int8 int_least8_t; 
.................... typedef unsigned int8 uint_least8_t; 
.................... typedef signed int16 int_least16_t; 
.................... typedef unsigned int16 uint_least16_t; 
.................... typedef signed int32 int_least32_t; 
.................... typedef unsigned int32 uint_least32_t; 
....................  
.................... #if defined(__PCD__) 
.................... //typedef signed int24 int_least24_t; 
.................... //typedef unsigned int24 uint_least24_t; 
.................... typedef signed int64 int_least64_t; 
.................... typedef unsigned int64 uint_least64_t; 
.................... #endif 
....................  
.................... #define INT_LEAST8_MAX  (128) 
.................... #define INT_LEAST8_MIN  (-127) 
.................... #define UINT_LEAST8_MAX (255) 
....................  
.................... #define INT_LEAST16_MAX  (32767) 
.................... #define INT_LEAST16_MIN  (-32768) 
.................... #define UINT_LEAST16_MAX (65535) 
....................  
.................... #define INT_LEAST32_MAX  (2147483647) 
.................... #define INT_LEAST32_MIN  (-2147483648) 
.................... #define UINT_LEAST32_MAX (4294967295) 
....................  
.................... #if defined(__PCD__) 
.................... //#define INT_LEAST24_MAX  (8388607) 
.................... //#define INT_LEAST24_MIN  (-8388608) 
.................... //#define UINT_LEAST24_MAX (16777215) 
....................  
.................... #define INT_LEAST64_MAX  (9223372036854775807) 
.................... #define INT_LEAST64_MIN  (-9223372036854775808) 
.................... #define UINT_LEAST64_MAX (18446744073709551615) 
.................... #endif 
....................  
.................... ///////// fastest width 
....................  
.................... #if defined(__PCD__) 
.................... typedef signed int16 int_fast8_t; 
.................... typedef unsigned int16 uint_fast8_t; 
.................... #define INT_FAST8_MAX  (32767) 
.................... #define INT_FAST8_MIN  (-32768) 
.................... #define UINT_FAST8_MAX (65535) 
.................... typedef signed int16 int_fast16_t; 
.................... typedef unsigned int16 uint_fast16_t; 
.................... //typedef signed int24 int_fast24_t; 
.................... //typedef unsigned int24 uint_fast24_t; 
.................... typedef signed int64 int_fast64_t; 
.................... typedef unsigned int64 uint_fast64_t; 
.................... #else 
.................... typedef signed int8 int_fast8_t; 
.................... typedef unsigned int8 uint_fast8_t; 
.................... #define INT_FAST8_MAX  (128) 
.................... #define INT_FAST8_MIN  (-127) 
.................... #define UINT_FAST8_MAX (255) 
.................... typedef signed int16 int_fast16_t; 
.................... typedef unsigned int16 uint_fast16_t; 
.................... #endif 
....................  
.................... typedef signed int32 int_fast32_t; 
.................... typedef unsigned int32 uint_fast32_t; 
....................  
.................... #define INT_FAST16_MAX  (32767) 
.................... #define INT_FAST16_MIN  (-32768) 
.................... #define UINT_FAST16_MAX (65535) 
....................  
.................... #define INT_FAST32_MAX  (2147483647) 
.................... #define INT_FAST32_MIN  (-2147483648) 
.................... #define UINT_FAST32_MAX (4294967295) 
....................  
.................... #if defined(__PCD__) 
.................... //#define INT_FAST24_MAX  (8388607) 
.................... //#define INT_FAST24_MIN  (-8388608) 
.................... //#define UINT_FAST24_MAX (16777215) 
....................  
.................... #define INT_FAST64_MAX  (9223372036854775807) 
.................... #define INT_FAST64_MIN  (-9223372036854775808) 
.................... #define UINT_FAST64_MAX (18446744073709551615) 
.................... #endif 
....................  
.................... //////////// big enough to hold pointers (OPTIONAL) 
....................  
.................... /// TODO 
....................  
.................... /// intptr_t uintptr_t 
....................  
.................... /// INTPTRN_MIN INTPTRN_MAX UINTPTRN_MAX 
....................  
....................  
.................... /////////// greatest width (OPTIONAL) 
....................  
.................... /// TODO 
....................  
.................... /// intmax_t uintmax_t 
....................  
.................... /// INTMAXN_MIN INTMAXN_MAX UINTMAXN_MAX 
....................  
.................... /// INTMAX_C(value) UINTMAX_C(value) 
....................  
....................  
.................... #endif 
....................  
....................  
.................... #define DS1307_ADDRESS      0xD0 
.................... #define DS1307_REG_SECONDS  0x00 
.................... #define DS1307_REG_CONTROL  0x07 
....................  
.................... enum SQWE 
.................... { 
....................   OUT_OFF = 0x00, 
....................   OUT_ON  = 0x80, 
....................   OUT_1Hz = 0x10, 
....................   OUT_4096Hz  = 0x11, 
....................   OUT_8192Hz  = 0x12, 
....................   OUT_32768Hz = 0x13 
.................... }; 
....................  
.................... typedef enum 
.................... { 
....................   SUNDAY = 1, 
....................   MONDAY, 
....................   TUESDAY, 
....................   WEDNESDAY, 
....................   THURSDAY, 
....................   FRIDAY, 
....................   SATURDAY 
.................... } RTC_DOW; 
....................  
.................... typedef enum 
.................... { 
....................   JANUARY = 1, 
....................   FEBRUARY, 
....................   MARCH, 
....................   APRIL, 
....................   MAY, 
....................   JUNE, 
....................   JULY, 
....................   AUGUST, 
....................   SEPTEMBER, 
....................   OCTOBER, 
....................   NOVEMBER, 
....................   DECEMBER 
.................... } RTC_Month; 
....................  
.................... typedef struct rtc_tm 
.................... { 
....................   uint8_t seconds; 
....................   uint8_t minutes; 
....................   uint8_t hours; 
....................   RTC_DOW dow; 
....................   uint8_t day; 
....................   RTC_Month month; 
....................   uint8_t year; 
.................... } RTC_Time; 
....................  
.................... ///////////////////////// All Functions ///////////////////////// 
....................                                                                // 
.................... uint8_t bcd_to_decimal(uint8_t number);                        // 
.................... uint8_t decimal_to_bcd(uint8_t number);                        // 
.................... void RTC_Set(RTC_Time *time_t);                                // 
.................... RTC_Time *RTC_Get();                                           // 
.................... void OSC_Enable();                                             // 
.................... void OSC_Disable();                                            // 
.................... uint8_t RTC_Read_Reg(uint8_t reg_address);                     // 
.................... void RTC_Write_Reg(uint8_t reg_address, uint8_t reg_value);    // 
.................... void SQWE_Set(SQWE pin_out);                                   // 
....................                                                                // 
.................... ///////////////////////////////////////////////////////////////// 
....................  
.................... // converts BCD to decimal 
.................... uint8_t bcd_to_decimal(uint8_t number) 
.................... { 
....................   return ( (number >> 4) * 10 + (number & 0x0F) ); 
*
00AA:  SWAPF  6E,W
00AB:  MOVWF  77
00AC:  MOVLW  0F
00AD:  ANDWF  77,F
00AE:  MOVF   77,W
00AF:  MOVWF  70
00B0:  MOVWF  74
00B1:  MOVLW  0A
00B2:  MOVWF  75
00B3:  CALL   085
00B4:  MOVF   78,W
00B5:  MOVWF  6F
00B6:  MOVF   6E,W
00B7:  ANDLW  0F
00B8:  ADDWF  78,W
00B9:  MOVWF  78
00BA:  RETURN
.................... } 
....................  
.................... // converts decimal to BCD 
.................... uint8_t decimal_to_bcd(uint8_t number) 
.................... { 
....................   return ( ((number / 10) << 4) + (number % 10) ); 
*
0691:  MOVF   74,W
0692:  MOVWF  76
0693:  MOVLW  0A
0694:  MOVWF  7B
0695:  CALL   67C
0696:  SWAPF  78,W
0697:  MOVWF  75
0698:  MOVLW  F0
0699:  ANDWF  75,F
069A:  MOVF   74,W
069B:  MOVWF  76
069C:  MOVLW  0A
069D:  MOVWF  7B
069E:  CALL   67C
069F:  MOVF   77,W
06A0:  ADDWF  75,W
06A1:  MOVWF  78
06A2:  RETURN
.................... } 
....................  
.................... // sets time and date 
.................... void RTC_Set(RTC_Time *time_t) 
06A3:  CLRF   71
06A4:  CALL   032
06A5:  MOVF   78,W
06A6:  MOVWF  70
.................... { 
....................   uint8_t sec_reg = RTC_Read_Reg(DS1307_REG_SECONDS); 
....................  
....................   // convert decimal to BCD 
....................   time_t->day     = decimal_to_bcd(time_t->day); 
06A7:  MOVLW  04
06A8:  ADDWF  6E,W
06A9:  MOVWF  78
06AA:  MOVF   6F,W
06AB:  MOVWF  7A
06AC:  BTFSC  03.0
06AD:  INCF   7A,F
06AE:  MOVF   78,W
06AF:  MOVWF  71
06B0:  MOVF   7A,W
06B1:  MOVWF  72
06B2:  MOVLW  04
06B3:  ADDWF  6E,W
06B4:  MOVWF  04
06B5:  BCF    03.7
06B6:  BTFSC  6F.0
06B7:  BSF    03.7
06B8:  MOVF   00,W
06B9:  MOVWF  73
06BA:  MOVWF  74
06BB:  CALL   691
06BC:  MOVF   71,W
06BD:  MOVWF  04
06BE:  BCF    03.7
06BF:  BTFSC  72.0
06C0:  BSF    03.7
06C1:  MOVF   78,W
06C2:  MOVWF  00
....................   time_t->month   = decimal_to_bcd(time_t->month); 
06C3:  MOVLW  05
06C4:  ADDWF  6E,W
06C5:  MOVWF  78
06C6:  MOVF   6F,W
06C7:  MOVWF  7A
06C8:  BTFSC  03.0
06C9:  INCF   7A,F
06CA:  MOVF   78,W
06CB:  MOVWF  71
06CC:  MOVF   7A,W
06CD:  MOVWF  72
06CE:  MOVLW  05
06CF:  ADDWF  6E,W
06D0:  MOVWF  04
06D1:  BCF    03.7
06D2:  BTFSC  6F.0
06D3:  BSF    03.7
06D4:  MOVF   00,W
06D5:  MOVWF  73
06D6:  MOVWF  74
06D7:  CALL   691
06D8:  MOVF   71,W
06D9:  MOVWF  04
06DA:  BCF    03.7
06DB:  BTFSC  72.0
06DC:  BSF    03.7
06DD:  MOVF   78,W
06DE:  MOVWF  00
....................   time_t->year    = decimal_to_bcd(time_t->year); 
06DF:  MOVLW  06
06E0:  ADDWF  6E,W
06E1:  MOVWF  78
06E2:  MOVF   6F,W
06E3:  MOVWF  7A
06E4:  BTFSC  03.0
06E5:  INCF   7A,F
06E6:  MOVF   78,W
06E7:  MOVWF  71
06E8:  MOVF   7A,W
06E9:  MOVWF  72
06EA:  MOVLW  06
06EB:  ADDWF  6E,W
06EC:  MOVWF  04
06ED:  BCF    03.7
06EE:  BTFSC  6F.0
06EF:  BSF    03.7
06F0:  MOVF   00,W
06F1:  MOVWF  73
06F2:  MOVWF  74
06F3:  CALL   691
06F4:  MOVF   71,W
06F5:  MOVWF  04
06F6:  BCF    03.7
06F7:  BTFSC  72.0
06F8:  BSF    03.7
06F9:  MOVF   78,W
06FA:  MOVWF  00
....................   time_t->hours   = decimal_to_bcd(time_t->hours); 
06FB:  MOVLW  02
06FC:  ADDWF  6E,W
06FD:  MOVWF  78
06FE:  MOVF   6F,W
06FF:  MOVWF  7A
0700:  BTFSC  03.0
0701:  INCF   7A,F
0702:  MOVF   78,W
0703:  MOVWF  71
0704:  MOVF   7A,W
0705:  MOVWF  72
0706:  MOVLW  02
0707:  ADDWF  6E,W
0708:  MOVWF  04
0709:  BCF    03.7
070A:  BTFSC  6F.0
070B:  BSF    03.7
070C:  MOVF   00,W
070D:  MOVWF  73
070E:  MOVWF  74
070F:  CALL   691
0710:  MOVF   71,W
0711:  MOVWF  04
0712:  BCF    03.7
0713:  BTFSC  72.0
0714:  BSF    03.7
0715:  MOVF   78,W
0716:  MOVWF  00
....................   time_t->minutes = decimal_to_bcd(time_t->minutes); 
0717:  MOVLW  01
0718:  ADDWF  6E,W
0719:  MOVWF  78
071A:  MOVF   6F,W
071B:  MOVWF  7A
071C:  BTFSC  03.0
071D:  INCF   7A,F
071E:  MOVF   78,W
071F:  MOVWF  71
0720:  MOVF   7A,W
0721:  MOVWF  72
0722:  MOVLW  01
0723:  ADDWF  6E,W
0724:  MOVWF  04
0725:  BCF    03.7
0726:  BTFSC  6F.0
0727:  BSF    03.7
0728:  MOVF   00,W
0729:  MOVWF  73
072A:  MOVWF  74
072B:  CALL   691
072C:  MOVF   71,W
072D:  MOVWF  04
072E:  BCF    03.7
072F:  BTFSC  72.0
0730:  BSF    03.7
0731:  MOVF   78,W
0732:  MOVWF  00
....................   time_t->seconds = decimal_to_bcd(time_t->seconds); 
0733:  MOVF   6E,W
0734:  MOVWF  78
0735:  MOVF   6F,W
0736:  MOVWF  7A
0737:  MOVF   6E,W
0738:  MOVWF  71
0739:  MOVF   6F,W
073A:  MOVWF  72
073B:  MOVF   6E,W
073C:  MOVWF  04
073D:  BCF    03.7
073E:  BTFSC  6F.0
073F:  BSF    03.7
0740:  MOVF   00,W
0741:  MOVWF  73
0742:  MOVWF  74
0743:  CALL   691
0744:  MOVF   71,W
0745:  MOVWF  04
0746:  BCF    03.7
0747:  BTFSC  72.0
0748:  BSF    03.7
0749:  MOVF   78,W
074A:  MOVWF  00
....................   // end conversion 
....................    
....................   // test if oscillator is disabled (CH bit = 1) 
....................   if(sec_reg & 0x80) 
074B:  BTFSS  70.7
074C:  GOTO   755
....................     time_t->seconds |= 0x80; 
074D:  MOVF   6E,W
074E:  MOVWF  04
074F:  BCF    03.7
0750:  BTFSC  6F.0
0751:  BSF    03.7
0752:  MOVF   00,W
0753:  IORLW  80
0754:  MOVWF  00
....................  
....................   // write data to the RTC chip 
....................   RTC_I2C_START(); 
0755:  BSF    03.5
0756:  BSF    11.0
0757:  BTFSC  11.0
0758:  GOTO   757
....................   RTC_I2C_WRITE(DS1307_ADDRESS); 
0759:  MOVLW  D0
075A:  MOVWF  73
075B:  BCF    03.5
075C:  CALL   012
....................   RTC_I2C_WRITE(DS1307_REG_SECONDS); 
075D:  CLRF   73
075E:  CALL   012
....................   RTC_I2C_WRITE(time_t->seconds); 
075F:  MOVF   6E,W
0760:  MOVWF  04
0761:  BCF    03.7
0762:  BTFSC  6F.0
0763:  BSF    03.7
0764:  MOVF   00,W
0765:  MOVWF  71
0766:  MOVWF  73
0767:  CALL   012
....................   RTC_I2C_WRITE(time_t->minutes); 
0768:  MOVLW  01
0769:  ADDWF  6E,W
076A:  MOVWF  04
076B:  BCF    03.7
076C:  BTFSC  6F.0
076D:  BSF    03.7
076E:  MOVF   00,W
076F:  MOVWF  71
0770:  MOVWF  73
0771:  CALL   012
....................   RTC_I2C_WRITE(time_t->hours); 
0772:  MOVLW  02
0773:  ADDWF  6E,W
0774:  MOVWF  04
0775:  BCF    03.7
0776:  BTFSC  6F.0
0777:  BSF    03.7
0778:  MOVF   00,W
0779:  MOVWF  71
077A:  MOVWF  73
077B:  CALL   012
....................   RTC_I2C_WRITE(time_t->dow); 
077C:  MOVLW  03
077D:  ADDWF  6E,W
077E:  MOVWF  04
077F:  BCF    03.7
0780:  BTFSC  6F.0
0781:  BSF    03.7
0782:  MOVF   00,W
0783:  MOVWF  71
0784:  MOVWF  73
0785:  CALL   012
....................   RTC_I2C_WRITE(time_t->day); 
0786:  MOVLW  04
0787:  ADDWF  6E,W
0788:  MOVWF  04
0789:  BCF    03.7
078A:  BTFSC  6F.0
078B:  BSF    03.7
078C:  MOVF   00,W
078D:  MOVWF  71
078E:  MOVWF  73
078F:  CALL   012
....................   RTC_I2C_WRITE(time_t->month); 
0790:  MOVLW  05
0791:  ADDWF  6E,W
0792:  MOVWF  04
0793:  BCF    03.7
0794:  BTFSC  6F.0
0795:  BSF    03.7
0796:  MOVF   00,W
0797:  MOVWF  71
0798:  MOVWF  73
0799:  CALL   012
....................   RTC_I2C_WRITE(time_t->year); 
079A:  MOVLW  06
079B:  ADDWF  6E,W
079C:  MOVWF  04
079D:  BCF    03.7
079E:  BTFSC  6F.0
079F:  BSF    03.7
07A0:  MOVF   00,W
07A1:  MOVWF  71
07A2:  MOVWF  73
07A3:  CALL   012
....................   RTC_I2C_STOP(); 
07A4:  BSF    03.5
07A5:  BSF    11.2
07A6:  BTFSC  11.2
07A7:  GOTO   7A6
07A8:  BCF    03.5
07A9:  BSF    0A.3
07AA:  BCF    0A.4
07AB:  GOTO   7E9 (RETURN)
.................... } 
....................  
.................... RTC_Time c_time; 
....................  
.................... // reads time and date 
.................... RTC_Time *RTC_Get() 
.................... { 
....................   RTC_I2C_START(); 
*
00BB:  BSF    03.5
00BC:  BSF    11.0
00BD:  BTFSC  11.0
00BE:  GOTO   0BD
....................   RTC_I2C_WRITE(DS1307_ADDRESS); 
00BF:  MOVLW  D0
00C0:  MOVWF  73
00C1:  BCF    03.5
00C2:  CALL   012
....................   RTC_I2C_WRITE(DS1307_REG_SECONDS); 
00C3:  CLRF   73
00C4:  CALL   012
....................   RTC_I2C_START(); 
00C5:  BSF    03.5
00C6:  BSF    11.1
00C7:  BTFSC  11.1
00C8:  GOTO   0C7
....................   RTC_I2C_WRITE(DS1307_ADDRESS | 0x01); 
00C9:  MOVLW  D1
00CA:  MOVWF  73
00CB:  BCF    03.5
00CC:  CALL   012
....................   c_time.seconds = RTC_I2C_READ(1) & 0x7F; 
00CD:  MOVLW  01
00CE:  MOVWF  77
00CF:  CALL   022
00D0:  MOVF   78,W
00D1:  ANDLW  7F
00D2:  MOVWF  21
....................   c_time.minutes = RTC_I2C_READ(1); 
00D3:  MOVLW  01
00D4:  MOVWF  77
00D5:  CALL   022
00D6:  MOVF   78,W
00D7:  MOVWF  22
....................   c_time.hours   = RTC_I2C_READ(1); 
00D8:  MOVLW  01
00D9:  MOVWF  77
00DA:  CALL   022
00DB:  MOVF   78,W
00DC:  MOVWF  23
....................   c_time.dow   = RTC_I2C_READ(1); 
00DD:  MOVLW  01
00DE:  MOVWF  77
00DF:  CALL   022
00E0:  MOVF   78,W
00E1:  MOVWF  24
....................   c_time.day   = RTC_I2C_READ(1); 
00E2:  MOVLW  01
00E3:  MOVWF  77
00E4:  CALL   022
00E5:  MOVF   78,W
00E6:  MOVWF  25
....................   c_time.month = RTC_I2C_READ(1); 
00E7:  MOVLW  01
00E8:  MOVWF  77
00E9:  CALL   022
00EA:  MOVF   78,W
00EB:  MOVWF  26
....................   c_time.year  = RTC_I2C_READ(0); 
00EC:  CLRF   77
00ED:  CALL   022
00EE:  MOVF   78,W
00EF:  MOVWF  27
....................   RTC_I2C_STOP(); 
00F0:  BSF    03.5
00F1:  BSF    11.2
00F2:  BTFSC  11.2
00F3:  GOTO   0F2
....................  
....................   // convert BCD to decimal 
....................   c_time.seconds = bcd_to_decimal(c_time.seconds); 
00F4:  BCF    03.5
00F5:  MOVF   21,W
00F6:  MOVWF  6E
00F7:  CALL   0AA
00F8:  MOVF   78,W
00F9:  MOVWF  21
....................   c_time.minutes = bcd_to_decimal(c_time.minutes); 
00FA:  MOVF   22,W
00FB:  MOVWF  6E
00FC:  CALL   0AA
00FD:  MOVF   78,W
00FE:  MOVWF  22
....................   c_time.hours   = bcd_to_decimal(c_time.hours); 
00FF:  MOVF   23,W
0100:  MOVWF  6E
0101:  CALL   0AA
0102:  MOVF   78,W
0103:  MOVWF  23
....................   c_time.day     = bcd_to_decimal(c_time.day); 
0104:  MOVF   25,W
0105:  MOVWF  6E
0106:  CALL   0AA
0107:  MOVF   78,W
0108:  MOVWF  25
....................   c_time.month   = bcd_to_decimal(c_time.month); 
0109:  MOVF   26,W
010A:  MOVWF  6E
010B:  CALL   0AA
010C:  MOVF   78,W
010D:  MOVWF  26
....................   c_time.year    = bcd_to_decimal(c_time.year); 
010E:  MOVF   27,W
010F:  MOVWF  6E
0110:  CALL   0AA
0111:  MOVF   78,W
0112:  MOVWF  27
....................   // end conversion 
....................  
....................   return &c_time; 
0113:  MOVLW  21
0114:  MOVWF  78
0115:  MOVLW  00
0116:  MOVWF  79
0117:  BSF    0A.3
0118:  BCF    0A.4
0119:  GOTO   2AB (RETURN)
.................... } 
....................  
.................... // writes 'reg_value' to register of address 'reg_address' 
.................... void RTC_Write_Reg(uint8_t reg_address, uint8_t reg_value) 
.................... { 
....................   RTC_I2C_START(); 
*
0059:  BSF    03.5
005A:  BSF    11.0
005B:  BTFSC  11.0
005C:  GOTO   05B
....................   RTC_I2C_WRITE(DS1307_ADDRESS); 
005D:  MOVLW  D0
005E:  MOVWF  73
005F:  BCF    03.5
0060:  CALL   012
....................   RTC_I2C_WRITE(reg_address); 
0061:  MOVF   6F,W
0062:  MOVWF  73
0063:  CALL   012
....................   RTC_I2C_WRITE(reg_value); 
0064:  MOVF   70,W
0065:  MOVWF  73
0066:  CALL   012
....................   RTC_I2C_STOP(); 
0067:  BSF    03.5
0068:  BSF    11.2
0069:  BTFSC  11.2
006A:  GOTO   069
.................... } 
....................  
.................... // returns the value stored in register of address 'reg_address' 
.................... uint8_t RTC_Read_Reg(uint8_t reg_address) 
.................... { 
....................   uint8_t reg_data; 
....................  
....................   RTC_I2C_START(); 
*
0032:  BSF    03.5
0033:  BSF    11.0
0034:  BTFSC  11.0
0035:  GOTO   034
....................   RTC_I2C_WRITE(DS1307_ADDRESS); 
0036:  MOVLW  D0
0037:  MOVWF  73
0038:  BCF    03.5
0039:  CALL   012
....................   RTC_I2C_WRITE(reg_address); 
003A:  MOVF   71,W
003B:  MOVWF  73
003C:  CALL   012
....................   RTC_I2C_START(); 
003D:  BSF    03.5
003E:  BSF    11.1
003F:  BTFSC  11.1
0040:  GOTO   03F
....................   RTC_I2C_WRITE(DS1307_ADDRESS | 0x01); 
0041:  MOVLW  D1
0042:  MOVWF  73
0043:  BCF    03.5
0044:  CALL   012
....................   reg_data = RTC_I2C_READ(0); 
0045:  CLRF   77
0046:  CALL   022
0047:  MOVF   78,W
0048:  MOVWF  72
....................   RTC_I2C_STOP(); 
0049:  BSF    03.5
004A:  BSF    11.2
004B:  BTFSC  11.2
004C:  GOTO   04B
....................  
....................   return reg_data; 
004D:  MOVF   72,W
004E:  MOVWF  78
004F:  BCF    03.5
0050:  RETURN
.................... } 
....................  
.................... // sets SQWE pin output 
.................... void SQWE_Set(SQWE pin_out) 
.................... { 
....................   RTC_I2C_START(); 
*
006F:  BSF    03.5
0070:  BSF    11.0
0071:  BTFSC  11.0
0072:  GOTO   071
....................   RTC_I2C_WRITE(DS1307_ADDRESS); 
0073:  MOVLW  D0
0074:  MOVWF  73
0075:  BCF    03.5
0076:  CALL   012
....................   RTC_I2C_WRITE(DS1307_REG_CONTROL); 
0077:  MOVLW  07
0078:  MOVWF  73
0079:  CALL   012
....................   RTC_I2C_WRITE(pin_out); 
007A:  MOVF   6E,W
007B:  MOVWF  73
007C:  CALL   012
....................   RTC_I2C_STOP(); 
007D:  BSF    03.5
007E:  BSF    11.2
007F:  BTFSC  11.2
0080:  GOTO   07F
0081:  BCF    03.5
0082:  BSF    0A.3
0083:  BCF    0A.4
0084:  GOTO   293 (RETURN)
.................... } 
....................  
.................... // enables RTC oscillator 
.................... void OSC_Enable() 
*
0051:  CLRF   71
0052:  CALL   032
0053:  MOVF   78,W
0054:  MOVWF  6E
.................... { 
....................   uint8_t sec_reg = RTC_Read_Reg(DS1307_REG_SECONDS); 
....................   sec_reg &= 0x7F; 
0055:  BCF    6E.7
....................   RTC_Write_Reg(DS1307_REG_SECONDS, sec_reg); 
0056:  CLRF   6F
0057:  MOVF   6E,W
0058:  MOVWF  70
*
006B:  BCF    03.5
006C:  BSF    0A.3
006D:  BCF    0A.4
006E:  GOTO   28E (RETURN)
.................... } 
....................  
.................... // disables RTC oscillator 
.................... void OSC_Disable() 
.................... { 
....................   uint8_t sec_reg = RTC_Read_Reg(DS1307_REG_SECONDS); 
....................   sec_reg |= 0x80; 
....................   RTC_Write_Reg(DS1307_REG_SECONDS, sec_reg); 
.................... } 
....................  
.................... #define DATA_PIN_CHOT   PIN_C0 
.................... #define CLOCK_PIN_CHOT  PIN_C1  
.................... #define LATCH_PIN_CHOT  PIN_C2 
.................... #define LED_COUNT  8  
.................... RTC_Time *mytime; 
.................... unsigned int8 maphim,k,vonglap_1,vonglap_2; 
.................... signed int16 C; 
.................... unsigned int16 Gio,Phut,Giay,Ngay,Thang,Nam; 
.................... unsigned int16 Hour, Minute, Second, Day, Month, Year, Year_2; 
.................... unsigned int16 Nam1, Nam2, Thang1, Thang2, Ngay1, Ngay2, Gio1, Gio2, Phut1, Phut2, Giay1, Giay2; 
.................... unsigned char data1=0x00,data2=0x00,maled[10] = { 
....................   0b11000000,  // 0 
....................   0b11111001,  // 1 
....................   0b10100100,  // 2 
....................   0b10110000,  // 3 
....................   0b10011001,  // 4 
....................   0b10010010,  // 5 
....................   0b10000010,  // 6 
....................   0b11111000,  // 7 
....................   0b10000000,  // 8 
....................   0b10010000   // 9 
.................... }; 
*
0A6C:  MOVLW  C0
0A6D:  BCF    03.5
0A6E:  MOVWF  64
0A6F:  MOVLW  F9
0A70:  MOVWF  65
0A71:  MOVLW  A4
0A72:  MOVWF  66
0A73:  MOVLW  B0
0A74:  MOVWF  67
0A75:  MOVLW  99
0A76:  MOVWF  68
0A77:  MOVLW  92
0A78:  MOVWF  69
0A79:  MOVLW  82
0A7A:  MOVWF  6A
0A7B:  MOVLW  F8
0A7C:  MOVWF  6B
0A7D:  MOVLW  80
0A7E:  MOVWF  6C
0A7F:  MOVLW  90
0A80:  MOVWF  6D
.................... const unsigned int8 phim[]={1, 2, 3, 4, 5, 6, 7, 8, 9, 0}; 
.................... void CHOT(unsigned char data1, unsigned char data2) { 
....................   for (k = 0; k < 8; k++) { 
*
02E2:  CLRF   2B
02E3:  MOVF   2B,W
02E4:  SUBLW  07
02E5:  BTFSS  03.0
02E6:  GOTO   30D
....................     output_bit(DATA_PIN_CHOT, (data1 >> (7 - k)) & 1); 
02E7:  MOVF   2B,W
02E8:  SUBLW  07
02E9:  MOVWF  78
02EA:  MOVF   6E,W
02EB:  MOVWF  77
02EC:  MOVF   78,F
02ED:  BTFSC  03.2
02EE:  GOTO   2F3
02EF:  BCF    03.0
02F0:  RRF    77,F
02F1:  DECFSZ 78,F
02F2:  GOTO   2EF
02F3:  MOVF   77,W
02F4:  ANDLW  01
02F5:  BTFSS  03.2
02F6:  GOTO   2F9
02F7:  BCF    07.0
02F8:  GOTO   2FA
02F9:  BSF    07.0
02FA:  BCF    20.0
02FB:  MOVF   20,W
02FC:  BSF    03.5
02FD:  MOVWF  07
....................     output_high(CLOCK_PIN_CHOT); 
02FE:  BCF    03.5
02FF:  BCF    20.1
0300:  MOVF   20,W
0301:  BSF    03.5
0302:  MOVWF  07
0303:  BCF    03.5
0304:  BSF    07.1
....................     output_low(CLOCK_PIN_CHOT); 
0305:  BCF    20.1
0306:  MOVF   20,W
0307:  BSF    03.5
0308:  MOVWF  07
0309:  BCF    03.5
030A:  BCF    07.1
030B:  INCF   2B,F
030C:  GOTO   2E3
....................   } 
....................   for (k = 0; k < 8; k++) { 
030D:  CLRF   2B
030E:  MOVF   2B,W
030F:  SUBLW  07
0310:  BTFSS  03.0
0311:  GOTO   338
....................     output_bit(DATA_PIN_CHOT, (data2 >> (7 - k)) & 1); 
0312:  MOVF   2B,W
0313:  SUBLW  07
0314:  MOVWF  78
0315:  MOVF   6F,W
0316:  MOVWF  77
0317:  MOVF   78,F
0318:  BTFSC  03.2
0319:  GOTO   31E
031A:  BCF    03.0
031B:  RRF    77,F
031C:  DECFSZ 78,F
031D:  GOTO   31A
031E:  MOVF   77,W
031F:  ANDLW  01
0320:  BTFSS  03.2
0321:  GOTO   324
0322:  BCF    07.0
0323:  GOTO   325
0324:  BSF    07.0
0325:  BCF    20.0
0326:  MOVF   20,W
0327:  BSF    03.5
0328:  MOVWF  07
....................     output_high(CLOCK_PIN_CHOT); 
0329:  BCF    03.5
032A:  BCF    20.1
032B:  MOVF   20,W
032C:  BSF    03.5
032D:  MOVWF  07
032E:  BCF    03.5
032F:  BSF    07.1
....................     output_low(CLOCK_PIN_CHOT); 
0330:  BCF    20.1
0331:  MOVF   20,W
0332:  BSF    03.5
0333:  MOVWF  07
0334:  BCF    03.5
0335:  BCF    07.1
0336:  INCF   2B,F
0337:  GOTO   30E
....................   } 
....................   output_high(LATCH_PIN_CHOT); 
0338:  BCF    20.2
0339:  MOVF   20,W
033A:  BSF    03.5
033B:  MOVWF  07
033C:  BCF    03.5
033D:  BSF    07.2
....................   output_low(LATCH_PIN_CHOT); 
033E:  BCF    20.2
033F:  MOVF   20,W
0340:  BSF    03.5
0341:  MOVWF  07
0342:  BCF    03.5
0343:  BCF    07.2
0344:  RETURN
.................... } 
....................  
.................... unsigned int8 quet_phim() 
*
061E:  MOVLW  FF
061F:  MOVWF  6F
.................... { 
....................    unsigned int8 hang, mp=0xff; 
....................    unsigned int8 maquet[4]={0xFE, 0xFD, 0xFB, 0xF7}; 
0620:  MOVLW  FE
0621:  MOVWF  70
0622:  MOVLW  FD
0623:  MOVWF  71
0624:  MOVLW  FB
0625:  MOVWF  72
0626:  MOVLW  F7
0627:  MOVWF  73
....................    for(hang=0; hang<=3; hang++) 
0628:  CLRF   6E
0629:  MOVF   6E,W
062A:  SUBLW  03
062B:  BTFSS  03.0
062C:  GOTO   664
....................    { 
....................       output_D(maquet[hang]); 
062D:  MOVLW  70
062E:  ADDWF  6E,W
062F:  MOVWF  04
0630:  BCF    03.7
0631:  MOVF   00,W
0632:  MOVWF  74
0633:  BSF    03.5
0634:  CLRF   08
0635:  MOVF   74,W
0636:  BCF    03.5
0637:  MOVWF  08
....................       while(input(pin_D4)==0) mp=hang*3+1; 
0638:  BSF    03.5
0639:  BSF    08.4
063A:  BCF    03.5
063B:  BTFSC  08.4
063C:  GOTO   646
063D:  MOVF   6E,W
063E:  MOVWF  74
063F:  MOVLW  03
0640:  MOVWF  75
0641:  CALL   085
0642:  MOVLW  01
0643:  ADDWF  78,W
0644:  MOVWF  6F
0645:  GOTO   638
....................       while(input(pin_D5)==0) mp=hang*3+2;  
0646:  BSF    03.5
0647:  BSF    08.5
0648:  BCF    03.5
0649:  BTFSC  08.5
064A:  GOTO   654
064B:  MOVF   6E,W
064C:  MOVWF  74
064D:  MOVLW  03
064E:  MOVWF  75
064F:  CALL   085
0650:  MOVLW  02
0651:  ADDWF  78,W
0652:  MOVWF  6F
0653:  GOTO   646
....................       while(input(pin_D6)==0) mp=hang*3+3; 
0654:  BSF    03.5
0655:  BSF    08.6
0656:  BCF    03.5
0657:  BTFSC  08.6
0658:  GOTO   662
0659:  MOVF   6E,W
065A:  MOVWF  74
065B:  MOVLW  03
065C:  MOVWF  75
065D:  CALL   085
065E:  MOVLW  03
065F:  ADDWF  78,W
0660:  MOVWF  6F
0661:  GOTO   654
0662:  INCF   6E,F
0663:  GOTO   629
....................    } 
....................    return mp; 
0664:  MOVF   6F,W
0665:  MOVWF  78
0666:  RETURN
.................... } 
....................  
.................... void hienthi_main() 
.................... { 
....................     output_B(maled[Gio/10%10]); 
*
0397:  MOVF   31,W
0398:  MOVWF  71
0399:  MOVF   30,W
039A:  MOVWF  70
039B:  CLRF   73
039C:  MOVLW  0A
039D:  MOVWF  72
039E:  CALL   2BD
039F:  MOVF   79,W
03A0:  MOVWF  6F
03A1:  MOVF   78,W
03A2:  MOVWF  6E
03A3:  MOVF   79,W
03A4:  MOVWF  71
03A5:  MOVF   78,W
03A6:  MOVWF  70
03A7:  CLRF   73
03A8:  MOVLW  0A
03A9:  MOVWF  72
03AA:  CALL   2BD
03AB:  MOVLW  64
03AC:  ADDWF  77,W
03AD:  MOVWF  04
03AE:  BCF    03.7
03AF:  BTFSC  7A.0
03B0:  BSF    03.7
03B1:  MOVF   00,W
03B2:  MOVWF  70
03B3:  BSF    03.5
03B4:  CLRF   06
03B5:  MOVF   70,W
03B6:  BCF    03.5
03B7:  MOVWF  06
....................     data1=0x01; 
03B8:  MOVLW  01
03B9:  MOVWF  62
....................     CHOT(data2,data1); 
03BA:  MOVF   63,W
03BB:  MOVWF  6E
03BC:  MOVF   62,W
03BD:  MOVWF  6F
03BE:  CALL   2E2
....................     delay_ms(1); 
03BF:  MOVLW  01
03C0:  MOVWF  6E
03C1:  CALL   345
....................     data1=0x00; 
03C2:  CLRF   62
....................     CHOT(data2,data1); 
03C3:  MOVF   63,W
03C4:  MOVWF  6E
03C5:  MOVF   62,W
03C6:  MOVWF  6F
03C7:  CALL   2E2
....................     output_B(maled[Gio%10]); 
03C8:  MOVF   31,W
03C9:  MOVWF  71
03CA:  MOVF   30,W
03CB:  MOVWF  70
03CC:  CLRF   73
03CD:  MOVLW  0A
03CE:  MOVWF  72
03CF:  CALL   2BD
03D0:  MOVLW  64
03D1:  ADDWF  77,W
03D2:  MOVWF  04
03D3:  BCF    03.7
03D4:  BTFSC  7A.0
03D5:  BSF    03.7
03D6:  MOVF   00,W
03D7:  MOVWF  70
03D8:  BSF    03.5
03D9:  CLRF   06
03DA:  MOVF   70,W
03DB:  BCF    03.5
03DC:  MOVWF  06
....................     data1=0x02; 
03DD:  MOVLW  02
03DE:  MOVWF  62
....................     CHOT(data2,data1); 
03DF:  MOVF   63,W
03E0:  MOVWF  6E
03E1:  MOVF   62,W
03E2:  MOVWF  6F
03E3:  CALL   2E2
....................     delay_ms(1); 
03E4:  MOVLW  01
03E5:  MOVWF  6E
03E6:  CALL   345
....................     data1=0x00; 
03E7:  CLRF   62
....................     CHOT(data2,data1); 
03E8:  MOVF   63,W
03E9:  MOVWF  6E
03EA:  MOVF   62,W
03EB:  MOVWF  6F
03EC:  CALL   2E2
....................     output_B(maled[Phut/10%10]); 
03ED:  MOVF   33,W
03EE:  MOVWF  71
03EF:  MOVF   32,W
03F0:  MOVWF  70
03F1:  CLRF   73
03F2:  MOVLW  0A
03F3:  MOVWF  72
03F4:  CALL   2BD
03F5:  MOVF   79,W
03F6:  MOVWF  6F
03F7:  MOVF   78,W
03F8:  MOVWF  6E
03F9:  MOVF   79,W
03FA:  MOVWF  71
03FB:  MOVF   78,W
03FC:  MOVWF  70
03FD:  CLRF   73
03FE:  MOVLW  0A
03FF:  MOVWF  72
0400:  CALL   2BD
0401:  MOVLW  64
0402:  ADDWF  77,W
0403:  MOVWF  04
0404:  BCF    03.7
0405:  BTFSC  7A.0
0406:  BSF    03.7
0407:  MOVF   00,W
0408:  MOVWF  70
0409:  BSF    03.5
040A:  CLRF   06
040B:  MOVF   70,W
040C:  BCF    03.5
040D:  MOVWF  06
....................     data1=0x04; 
040E:  MOVLW  04
040F:  MOVWF  62
....................     CHOT(data2,data1); 
0410:  MOVF   63,W
0411:  MOVWF  6E
0412:  MOVF   62,W
0413:  MOVWF  6F
0414:  CALL   2E2
....................     delay_ms(1); 
0415:  MOVLW  01
0416:  MOVWF  6E
0417:  CALL   345
....................     data1=0x00; 
0418:  CLRF   62
....................     CHOT(data2,data1); 
0419:  MOVF   63,W
041A:  MOVWF  6E
041B:  MOVF   62,W
041C:  MOVWF  6F
041D:  CALL   2E2
....................     output_B(maled[Phut%10]); 
041E:  MOVF   33,W
041F:  MOVWF  71
0420:  MOVF   32,W
0421:  MOVWF  70
0422:  CLRF   73
0423:  MOVLW  0A
0424:  MOVWF  72
0425:  CALL   2BD
0426:  MOVLW  64
0427:  ADDWF  77,W
0428:  MOVWF  04
0429:  BCF    03.7
042A:  BTFSC  7A.0
042B:  BSF    03.7
042C:  MOVF   00,W
042D:  MOVWF  70
042E:  BSF    03.5
042F:  CLRF   06
0430:  MOVF   70,W
0431:  BCF    03.5
0432:  MOVWF  06
....................     data1=0x08; 
0433:  MOVLW  08
0434:  MOVWF  62
....................     CHOT(data2,data1); 
0435:  MOVF   63,W
0436:  MOVWF  6E
0437:  MOVF   62,W
0438:  MOVWF  6F
0439:  CALL   2E2
....................     delay_ms(1); 
043A:  MOVLW  01
043B:  MOVWF  6E
043C:  CALL   345
....................     data1=0x00; 
043D:  CLRF   62
....................     CHOT(data2,data1); 
043E:  MOVF   63,W
043F:  MOVWF  6E
0440:  MOVF   62,W
0441:  MOVWF  6F
0442:  CALL   2E2
....................     output_B(maled[Giay/10%10]); 
0443:  MOVF   35,W
0444:  MOVWF  71
0445:  MOVF   34,W
0446:  MOVWF  70
0447:  CLRF   73
0448:  MOVLW  0A
0449:  MOVWF  72
044A:  CALL   2BD
044B:  MOVF   79,W
044C:  MOVWF  6F
044D:  MOVF   78,W
044E:  MOVWF  6E
044F:  MOVF   79,W
0450:  MOVWF  71
0451:  MOVF   78,W
0452:  MOVWF  70
0453:  CLRF   73
0454:  MOVLW  0A
0455:  MOVWF  72
0456:  CALL   2BD
0457:  MOVLW  64
0458:  ADDWF  77,W
0459:  MOVWF  04
045A:  BCF    03.7
045B:  BTFSC  7A.0
045C:  BSF    03.7
045D:  MOVF   00,W
045E:  MOVWF  70
045F:  BSF    03.5
0460:  CLRF   06
0461:  MOVF   70,W
0462:  BCF    03.5
0463:  MOVWF  06
....................     data1=0x10; 
0464:  MOVLW  10
0465:  MOVWF  62
....................     CHOT(data2,data1); 
0466:  MOVF   63,W
0467:  MOVWF  6E
0468:  MOVF   62,W
0469:  MOVWF  6F
046A:  CALL   2E2
....................     delay_ms(1); 
046B:  MOVLW  01
046C:  MOVWF  6E
046D:  CALL   345
....................     data1=0x00; 
046E:  CLRF   62
....................     CHOT(data2,data1); 
046F:  MOVF   63,W
0470:  MOVWF  6E
0471:  MOVF   62,W
0472:  MOVWF  6F
0473:  CALL   2E2
....................     output_B(maled[Giay%10]); 
0474:  MOVF   35,W
0475:  MOVWF  71
0476:  MOVF   34,W
0477:  MOVWF  70
0478:  CLRF   73
0479:  MOVLW  0A
047A:  MOVWF  72
047B:  CALL   2BD
047C:  MOVLW  64
047D:  ADDWF  77,W
047E:  MOVWF  04
047F:  BCF    03.7
0480:  BTFSC  7A.0
0481:  BSF    03.7
0482:  MOVF   00,W
0483:  MOVWF  70
0484:  BSF    03.5
0485:  CLRF   06
0486:  MOVF   70,W
0487:  BCF    03.5
0488:  MOVWF  06
....................     data1=0x20; 
0489:  MOVLW  20
048A:  MOVWF  62
....................     CHOT(data2,data1); 
048B:  MOVF   63,W
048C:  MOVWF  6E
048D:  MOVF   62,W
048E:  MOVWF  6F
048F:  CALL   2E2
....................     delay_ms(1); 
0490:  MOVLW  01
0491:  MOVWF  6E
0492:  CALL   345
....................     data1=0x00; 
0493:  CLRF   62
....................     CHOT(data2,data1); 
0494:  MOVF   63,W
0495:  MOVWF  6E
0496:  MOVF   62,W
0497:  MOVWF  6F
0498:  CALL   2E2
....................     output_B(maled[(C/ 10) % 10]); 
0499:  MOVF   2F,W
049A:  MOVWF  71
049B:  MOVF   2E,W
049C:  MOVWF  70
049D:  CLRF   73
049E:  MOVLW  0A
049F:  MOVWF  72
04A0:  CALL   359
04A1:  MOVF   79,W
04A2:  MOVWF  6F
04A3:  MOVF   78,W
04A4:  MOVWF  6E
04A5:  MOVF   79,W
04A6:  MOVWF  71
04A7:  MOVF   78,W
04A8:  MOVWF  70
04A9:  CLRF   73
04AA:  MOVLW  0A
04AB:  MOVWF  72
04AC:  CALL   359
04AD:  MOVLW  64
04AE:  ADDWF  77,W
04AF:  MOVWF  04
04B0:  BCF    03.7
04B1:  BTFSC  7A.0
04B2:  BSF    03.7
04B3:  MOVF   00,W
04B4:  MOVWF  70
04B5:  BSF    03.5
04B6:  CLRF   06
04B7:  MOVF   70,W
04B8:  BCF    03.5
04B9:  MOVWF  06
....................     data1=0x40; 
04BA:  MOVLW  40
04BB:  MOVWF  62
....................     CHOT(data2,data1); 
04BC:  MOVF   63,W
04BD:  MOVWF  6E
04BE:  MOVF   62,W
04BF:  MOVWF  6F
04C0:  CALL   2E2
....................     delay_ms(1); 
04C1:  MOVLW  01
04C2:  MOVWF  6E
04C3:  CALL   345
....................     data1=0x00; 
04C4:  CLRF   62
....................     CHOT(data2,data1); 
04C5:  MOVF   63,W
04C6:  MOVWF  6E
04C7:  MOVF   62,W
04C8:  MOVWF  6F
04C9:  CALL   2E2
....................     output_B(maled[C%10]); 
04CA:  MOVF   2F,W
04CB:  MOVWF  71
04CC:  MOVF   2E,W
04CD:  MOVWF  70
04CE:  CLRF   73
04CF:  MOVLW  0A
04D0:  MOVWF  72
04D1:  CALL   359
04D2:  MOVLW  64
04D3:  ADDWF  77,W
04D4:  MOVWF  04
04D5:  BCF    03.7
04D6:  BTFSC  7A.0
04D7:  BSF    03.7
04D8:  MOVF   00,W
04D9:  MOVWF  70
04DA:  BSF    03.5
04DB:  CLRF   06
04DC:  MOVF   70,W
04DD:  BCF    03.5
04DE:  MOVWF  06
....................     data1=0x80; 
04DF:  MOVLW  80
04E0:  MOVWF  62
....................     CHOT(data2,data1); 
04E1:  MOVF   63,W
04E2:  MOVWF  6E
04E3:  MOVF   62,W
04E4:  MOVWF  6F
04E5:  CALL   2E2
....................     delay_ms(1); 
04E6:  MOVLW  01
04E7:  MOVWF  6E
04E8:  CALL   345
....................     data1=0x00; 
04E9:  CLRF   62
....................     CHOT(data2,data1);  
04EA:  MOVF   63,W
04EB:  MOVWF  6E
04EC:  MOVF   62,W
04ED:  MOVWF  6F
04EE:  CALL   2E2
....................      
....................     output_B(maled[2]); 
04EF:  BSF    03.5
04F0:  CLRF   06
04F1:  BCF    03.5
04F2:  MOVF   66,W
04F3:  MOVWF  06
....................     data2=0x01; 
04F4:  MOVLW  01
04F5:  MOVWF  63
....................     CHOT(data2,data1); 
04F6:  MOVF   63,W
04F7:  MOVWF  6E
04F8:  MOVF   62,W
04F9:  MOVWF  6F
04FA:  CALL   2E2
....................     delay_ms(1); 
04FB:  MOVLW  01
04FC:  MOVWF  6E
04FD:  CALL   345
....................     data2=0x00; 
04FE:  CLRF   63
....................     CHOT(data2,data1); 
04FF:  MOVF   63,W
0500:  MOVWF  6E
0501:  MOVF   62,W
0502:  MOVWF  6F
0503:  CALL   2E2
....................     output_B(maled[0]); 
0504:  BSF    03.5
0505:  CLRF   06
0506:  BCF    03.5
0507:  MOVF   64,W
0508:  MOVWF  06
....................     data2=0x02; 
0509:  MOVLW  02
050A:  MOVWF  63
....................     CHOT(data2,data1); 
050B:  MOVF   63,W
050C:  MOVWF  6E
050D:  MOVF   62,W
050E:  MOVWF  6F
050F:  CALL   2E2
....................     delay_ms(1); 
0510:  MOVLW  01
0511:  MOVWF  6E
0512:  CALL   345
....................     data2=0x00; 
0513:  CLRF   63
....................     CHOT(data2,data1); 
0514:  MOVF   63,W
0515:  MOVWF  6E
0516:  MOVF   62,W
0517:  MOVWF  6F
0518:  CALL   2E2
....................     output_B(maled[Nam/10%10]); 
0519:  MOVF   3B,W
051A:  MOVWF  71
051B:  MOVF   3A,W
051C:  MOVWF  70
051D:  CLRF   73
051E:  MOVLW  0A
051F:  MOVWF  72
0520:  CALL   2BD
0521:  MOVF   79,W
0522:  MOVWF  6F
0523:  MOVF   78,W
0524:  MOVWF  6E
0525:  MOVF   79,W
0526:  MOVWF  71
0527:  MOVF   78,W
0528:  MOVWF  70
0529:  CLRF   73
052A:  MOVLW  0A
052B:  MOVWF  72
052C:  CALL   2BD
052D:  MOVLW  64
052E:  ADDWF  77,W
052F:  MOVWF  04
0530:  BCF    03.7
0531:  BTFSC  7A.0
0532:  BSF    03.7
0533:  MOVF   00,W
0534:  MOVWF  70
0535:  BSF    03.5
0536:  CLRF   06
0537:  MOVF   70,W
0538:  BCF    03.5
0539:  MOVWF  06
....................     data2=0x04; 
053A:  MOVLW  04
053B:  MOVWF  63
....................     CHOT(data2,data1); 
053C:  MOVF   63,W
053D:  MOVWF  6E
053E:  MOVF   62,W
053F:  MOVWF  6F
0540:  CALL   2E2
....................     delay_ms(1); 
0541:  MOVLW  01
0542:  MOVWF  6E
0543:  CALL   345
....................     data2=0x00; 
0544:  CLRF   63
....................     CHOT(data2,data1); 
0545:  MOVF   63,W
0546:  MOVWF  6E
0547:  MOVF   62,W
0548:  MOVWF  6F
0549:  CALL   2E2
....................     output_B(maled[Nam%10]); 
054A:  MOVF   3B,W
054B:  MOVWF  71
054C:  MOVF   3A,W
054D:  MOVWF  70
054E:  CLRF   73
054F:  MOVLW  0A
0550:  MOVWF  72
0551:  CALL   2BD
0552:  MOVLW  64
0553:  ADDWF  77,W
0554:  MOVWF  04
0555:  BCF    03.7
0556:  BTFSC  7A.0
0557:  BSF    03.7
0558:  MOVF   00,W
0559:  MOVWF  70
055A:  BSF    03.5
055B:  CLRF   06
055C:  MOVF   70,W
055D:  BCF    03.5
055E:  MOVWF  06
....................     data2=0x08; 
055F:  MOVLW  08
0560:  MOVWF  63
....................     CHOT(data2,data1); 
0561:  MOVF   63,W
0562:  MOVWF  6E
0563:  MOVF   62,W
0564:  MOVWF  6F
0565:  CALL   2E2
....................     delay_ms(1); 
0566:  MOVLW  01
0567:  MOVWF  6E
0568:  CALL   345
....................     data2=0x00; 
0569:  CLRF   63
....................     CHOT(data2,data1); 
056A:  MOVF   63,W
056B:  MOVWF  6E
056C:  MOVF   62,W
056D:  MOVWF  6F
056E:  CALL   2E2
....................      
....................     output_B(maled[Thang/10%10]); 
056F:  MOVF   39,W
0570:  MOVWF  71
0571:  MOVF   38,W
0572:  MOVWF  70
0573:  CLRF   73
0574:  MOVLW  0A
0575:  MOVWF  72
0576:  CALL   2BD
0577:  MOVF   79,W
0578:  MOVWF  6F
0579:  MOVF   78,W
057A:  MOVWF  6E
057B:  MOVF   79,W
057C:  MOVWF  71
057D:  MOVF   78,W
057E:  MOVWF  70
057F:  CLRF   73
0580:  MOVLW  0A
0581:  MOVWF  72
0582:  CALL   2BD
0583:  MOVLW  64
0584:  ADDWF  77,W
0585:  MOVWF  04
0586:  BCF    03.7
0587:  BTFSC  7A.0
0588:  BSF    03.7
0589:  MOVF   00,W
058A:  MOVWF  70
058B:  BSF    03.5
058C:  CLRF   06
058D:  MOVF   70,W
058E:  BCF    03.5
058F:  MOVWF  06
....................     data2=0x10; 
0590:  MOVLW  10
0591:  MOVWF  63
....................     CHOT(data2,data1); 
0592:  MOVF   63,W
0593:  MOVWF  6E
0594:  MOVF   62,W
0595:  MOVWF  6F
0596:  CALL   2E2
....................     delay_ms(1); 
0597:  MOVLW  01
0598:  MOVWF  6E
0599:  CALL   345
....................     data2=0x00; 
059A:  CLRF   63
....................     CHOT(data2,data1); 
059B:  MOVF   63,W
059C:  MOVWF  6E
059D:  MOVF   62,W
059E:  MOVWF  6F
059F:  CALL   2E2
....................     output_B(maled[Thang%10]); 
05A0:  MOVF   39,W
05A1:  MOVWF  71
05A2:  MOVF   38,W
05A3:  MOVWF  70
05A4:  CLRF   73
05A5:  MOVLW  0A
05A6:  MOVWF  72
05A7:  CALL   2BD
05A8:  MOVLW  64
05A9:  ADDWF  77,W
05AA:  MOVWF  04
05AB:  BCF    03.7
05AC:  BTFSC  7A.0
05AD:  BSF    03.7
05AE:  MOVF   00,W
05AF:  MOVWF  70
05B0:  BSF    03.5
05B1:  CLRF   06
05B2:  MOVF   70,W
05B3:  BCF    03.5
05B4:  MOVWF  06
....................     data2=0x20; 
05B5:  MOVLW  20
05B6:  MOVWF  63
....................     CHOT(data2,data1); 
05B7:  MOVF   63,W
05B8:  MOVWF  6E
05B9:  MOVF   62,W
05BA:  MOVWF  6F
05BB:  CALL   2E2
....................     delay_ms(1); 
05BC:  MOVLW  01
05BD:  MOVWF  6E
05BE:  CALL   345
....................     data2=0x00; 
05BF:  CLRF   63
....................     CHOT(data2,data1); 
05C0:  MOVF   63,W
05C1:  MOVWF  6E
05C2:  MOVF   62,W
05C3:  MOVWF  6F
05C4:  CALL   2E2
....................  
....................     output_B(maled[Ngay/10%10]); 
05C5:  MOVF   37,W
05C6:  MOVWF  71
05C7:  MOVF   36,W
05C8:  MOVWF  70
05C9:  CLRF   73
05CA:  MOVLW  0A
05CB:  MOVWF  72
05CC:  CALL   2BD
05CD:  MOVF   79,W
05CE:  MOVWF  6F
05CF:  MOVF   78,W
05D0:  MOVWF  6E
05D1:  MOVF   79,W
05D2:  MOVWF  71
05D3:  MOVF   78,W
05D4:  MOVWF  70
05D5:  CLRF   73
05D6:  MOVLW  0A
05D7:  MOVWF  72
05D8:  CALL   2BD
05D9:  MOVLW  64
05DA:  ADDWF  77,W
05DB:  MOVWF  04
05DC:  BCF    03.7
05DD:  BTFSC  7A.0
05DE:  BSF    03.7
05DF:  MOVF   00,W
05E0:  MOVWF  70
05E1:  BSF    03.5
05E2:  CLRF   06
05E3:  MOVF   70,W
05E4:  BCF    03.5
05E5:  MOVWF  06
....................     data2=0x40; 
05E6:  MOVLW  40
05E7:  MOVWF  63
....................     CHOT(data2,data1); 
05E8:  MOVF   63,W
05E9:  MOVWF  6E
05EA:  MOVF   62,W
05EB:  MOVWF  6F
05EC:  CALL   2E2
....................     delay_ms(1); 
05ED:  MOVLW  01
05EE:  MOVWF  6E
05EF:  CALL   345
....................     data2=0x00; 
05F0:  CLRF   63
....................     CHOT(data2,data1); 
05F1:  MOVF   63,W
05F2:  MOVWF  6E
05F3:  MOVF   62,W
05F4:  MOVWF  6F
05F5:  CALL   2E2
....................     output_B(maled[Ngay%10]); 
05F6:  MOVF   37,W
05F7:  MOVWF  71
05F8:  MOVF   36,W
05F9:  MOVWF  70
05FA:  CLRF   73
05FB:  MOVLW  0A
05FC:  MOVWF  72
05FD:  CALL   2BD
05FE:  MOVLW  64
05FF:  ADDWF  77,W
0600:  MOVWF  04
0601:  BCF    03.7
0602:  BTFSC  7A.0
0603:  BSF    03.7
0604:  MOVF   00,W
0605:  MOVWF  70
0606:  BSF    03.5
0607:  CLRF   06
0608:  MOVF   70,W
0609:  BCF    03.5
060A:  MOVWF  06
....................     data2=0x80; 
060B:  MOVLW  80
060C:  MOVWF  63
....................     CHOT(data2,data1); 
060D:  MOVF   63,W
060E:  MOVWF  6E
060F:  MOVF   62,W
0610:  MOVWF  6F
0611:  CALL   2E2
....................     delay_ms(1); 
0612:  MOVLW  01
0613:  MOVWF  6E
0614:  CALL   345
....................     data2=0x00; 
0615:  CLRF   63
....................     CHOT(data2,data1); 
0616:  MOVF   63,W
0617:  MOVWF  6E
0618:  MOVF   62,W
0619:  MOVWF  6F
061A:  CALL   2E2
061B:  BSF    0A.3
061C:  BCF    0A.4
061D:  GOTO   342 (RETURN)
.................... } 
....................  
.................... void hienthi() 
.................... { 
....................     output_B(maled[Gio1]); 
*
0800:  MOVLW  64
0801:  ADDWF  56,W
0802:  MOVWF  04
0803:  BCF    03.7
0804:  BTFSC  57.0
0805:  BSF    03.7
0806:  MOVF   00,W
0807:  MOVWF  6E
0808:  BSF    03.5
0809:  CLRF   06
080A:  BCF    03.5
080B:  MOVF   6E,W
080C:  MOVWF  06
....................     data1=0x01; 
080D:  MOVLW  01
080E:  MOVWF  62
....................     CHOT(data2,data1); 
080F:  MOVF   63,W
0810:  MOVWF  6E
0811:  MOVF   62,W
0812:  MOVWF  6F
0813:  BCF    0A.3
0814:  CALL   2E2
0815:  BSF    0A.3
....................     delay_ms(1); 
0816:  MOVLW  01
0817:  MOVWF  6E
0818:  BCF    0A.3
0819:  CALL   345
081A:  BSF    0A.3
....................     data1=0x00; 
081B:  CLRF   62
....................     CHOT(data2,data1); 
081C:  MOVF   63,W
081D:  MOVWF  6E
081E:  MOVF   62,W
081F:  MOVWF  6F
0820:  BCF    0A.3
0821:  CALL   2E2
0822:  BSF    0A.3
....................     output_B(maled[Gio2]); 
0823:  MOVLW  64
0824:  ADDWF  58,W
0825:  MOVWF  04
0826:  BCF    03.7
0827:  BTFSC  59.0
0828:  BSF    03.7
0829:  MOVF   00,W
082A:  MOVWF  6E
082B:  BSF    03.5
082C:  CLRF   06
082D:  BCF    03.5
082E:  MOVF   6E,W
082F:  MOVWF  06
....................     data1=0x02; 
0830:  MOVLW  02
0831:  MOVWF  62
....................     CHOT(data2,data1); 
0832:  MOVF   63,W
0833:  MOVWF  6E
0834:  MOVF   62,W
0835:  MOVWF  6F
0836:  BCF    0A.3
0837:  CALL   2E2
0838:  BSF    0A.3
....................     delay_ms(1); 
0839:  MOVLW  01
083A:  MOVWF  6E
083B:  BCF    0A.3
083C:  CALL   345
083D:  BSF    0A.3
....................     data1=0x00; 
083E:  CLRF   62
....................     CHOT(data2,data1); 
083F:  MOVF   63,W
0840:  MOVWF  6E
0841:  MOVF   62,W
0842:  MOVWF  6F
0843:  BCF    0A.3
0844:  CALL   2E2
0845:  BSF    0A.3
....................     output_B(maled[Phut1]); 
0846:  MOVLW  64
0847:  ADDWF  5A,W
0848:  MOVWF  04
0849:  BCF    03.7
084A:  BTFSC  5B.0
084B:  BSF    03.7
084C:  MOVF   00,W
084D:  MOVWF  6E
084E:  BSF    03.5
084F:  CLRF   06
0850:  BCF    03.5
0851:  MOVF   6E,W
0852:  MOVWF  06
....................     data1=0x04; 
0853:  MOVLW  04
0854:  MOVWF  62
....................     CHOT(data2,data1); 
0855:  MOVF   63,W
0856:  MOVWF  6E
0857:  MOVF   62,W
0858:  MOVWF  6F
0859:  BCF    0A.3
085A:  CALL   2E2
085B:  BSF    0A.3
....................     delay_ms(1); 
085C:  MOVLW  01
085D:  MOVWF  6E
085E:  BCF    0A.3
085F:  CALL   345
0860:  BSF    0A.3
....................     data1=0x00; 
0861:  CLRF   62
....................     CHOT(data2,data1); 
0862:  MOVF   63,W
0863:  MOVWF  6E
0864:  MOVF   62,W
0865:  MOVWF  6F
0866:  BCF    0A.3
0867:  CALL   2E2
0868:  BSF    0A.3
....................     output_B(maled[Phut2]); 
0869:  MOVLW  64
086A:  ADDWF  5C,W
086B:  MOVWF  04
086C:  BCF    03.7
086D:  BTFSC  5D.0
086E:  BSF    03.7
086F:  MOVF   00,W
0870:  MOVWF  6E
0871:  BSF    03.5
0872:  CLRF   06
0873:  BCF    03.5
0874:  MOVF   6E,W
0875:  MOVWF  06
....................     data1=0x08; 
0876:  MOVLW  08
0877:  MOVWF  62
....................     CHOT(data2,data1); 
0878:  MOVF   63,W
0879:  MOVWF  6E
087A:  MOVF   62,W
087B:  MOVWF  6F
087C:  BCF    0A.3
087D:  CALL   2E2
087E:  BSF    0A.3
....................     delay_ms(1); 
087F:  MOVLW  01
0880:  MOVWF  6E
0881:  BCF    0A.3
0882:  CALL   345
0883:  BSF    0A.3
....................     data1=0x00; 
0884:  CLRF   62
....................     CHOT(data2,data1); 
0885:  MOVF   63,W
0886:  MOVWF  6E
0887:  MOVF   62,W
0888:  MOVWF  6F
0889:  BCF    0A.3
088A:  CALL   2E2
088B:  BSF    0A.3
....................     output_B(maled[Giay1]); 
088C:  MOVLW  64
088D:  ADDWF  5E,W
088E:  MOVWF  04
088F:  BCF    03.7
0890:  BTFSC  5F.0
0891:  BSF    03.7
0892:  MOVF   00,W
0893:  MOVWF  6E
0894:  BSF    03.5
0895:  CLRF   06
0896:  BCF    03.5
0897:  MOVF   6E,W
0898:  MOVWF  06
....................     data1=0x10; 
0899:  MOVLW  10
089A:  MOVWF  62
....................     CHOT(data2,data1); 
089B:  MOVF   63,W
089C:  MOVWF  6E
089D:  MOVF   62,W
089E:  MOVWF  6F
089F:  BCF    0A.3
08A0:  CALL   2E2
08A1:  BSF    0A.3
....................     delay_ms(1); 
08A2:  MOVLW  01
08A3:  MOVWF  6E
08A4:  BCF    0A.3
08A5:  CALL   345
08A6:  BSF    0A.3
....................     data1=0x00; 
08A7:  CLRF   62
....................     CHOT(data2,data1); 
08A8:  MOVF   63,W
08A9:  MOVWF  6E
08AA:  MOVF   62,W
08AB:  MOVWF  6F
08AC:  BCF    0A.3
08AD:  CALL   2E2
08AE:  BSF    0A.3
....................     output_B(maled[Giay2]); 
08AF:  MOVLW  64
08B0:  ADDWF  60,W
08B1:  MOVWF  04
08B2:  BCF    03.7
08B3:  BTFSC  61.0
08B4:  BSF    03.7
08B5:  MOVF   00,W
08B6:  MOVWF  6E
08B7:  BSF    03.5
08B8:  CLRF   06
08B9:  BCF    03.5
08BA:  MOVF   6E,W
08BB:  MOVWF  06
....................     data1=0x20; 
08BC:  MOVLW  20
08BD:  MOVWF  62
....................     CHOT(data2,data1); 
08BE:  MOVF   63,W
08BF:  MOVWF  6E
08C0:  MOVF   62,W
08C1:  MOVWF  6F
08C2:  BCF    0A.3
08C3:  CALL   2E2
08C4:  BSF    0A.3
....................     delay_ms(1); 
08C5:  MOVLW  01
08C6:  MOVWF  6E
08C7:  BCF    0A.3
08C8:  CALL   345
08C9:  BSF    0A.3
....................     data1=0x00; 
08CA:  CLRF   62
....................     CHOT(data2,data1); 
08CB:  MOVF   63,W
08CC:  MOVWF  6E
08CD:  MOVF   62,W
08CE:  MOVWF  6F
08CF:  BCF    0A.3
08D0:  CALL   2E2
08D1:  BSF    0A.3
....................     output_B(maled[(C/ 10) % 10]); 
08D2:  MOVF   2F,W
08D3:  MOVWF  71
08D4:  MOVF   2E,W
08D5:  MOVWF  70
08D6:  CLRF   73
08D7:  MOVLW  0A
08D8:  MOVWF  72
08D9:  BCF    0A.3
08DA:  CALL   359
08DB:  BSF    0A.3
08DC:  MOVF   79,W
08DD:  MOVWF  6F
08DE:  MOVF   78,W
08DF:  MOVWF  6E
08E0:  MOVF   6F,W
08E1:  MOVWF  71
08E2:  MOVF   6E,W
08E3:  MOVWF  70
08E4:  CLRF   73
08E5:  MOVLW  0A
08E6:  MOVWF  72
08E7:  BCF    0A.3
08E8:  CALL   359
08E9:  BSF    0A.3
08EA:  MOVF   77,W
08EB:  MOVWF  6E
08EC:  MOVF   7A,W
08ED:  MOVWF  6F
08EE:  MOVLW  64
08EF:  ADDWF  6E,W
08F0:  MOVWF  04
08F1:  BCF    03.7
08F2:  BTFSC  6F.0
08F3:  BSF    03.7
08F4:  MOVF   00,W
08F5:  MOVWF  70
08F6:  BSF    03.5
08F7:  CLRF   06
08F8:  MOVF   70,W
08F9:  BCF    03.5
08FA:  MOVWF  06
....................     data1=0x40; 
08FB:  MOVLW  40
08FC:  MOVWF  62
....................     CHOT(data2,data1); 
08FD:  MOVF   63,W
08FE:  MOVWF  6E
08FF:  MOVF   62,W
0900:  MOVWF  6F
0901:  BCF    0A.3
0902:  CALL   2E2
0903:  BSF    0A.3
....................     delay_ms(1); 
0904:  MOVLW  01
0905:  MOVWF  6E
0906:  BCF    0A.3
0907:  CALL   345
0908:  BSF    0A.3
....................     data1=0x00; 
0909:  CLRF   62
....................     CHOT(data2,data1); 
090A:  MOVF   63,W
090B:  MOVWF  6E
090C:  MOVF   62,W
090D:  MOVWF  6F
090E:  BCF    0A.3
090F:  CALL   2E2
0910:  BSF    0A.3
....................     output_B(maled[C%10]); 
0911:  MOVF   2F,W
0912:  MOVWF  71
0913:  MOVF   2E,W
0914:  MOVWF  70
0915:  CLRF   73
0916:  MOVLW  0A
0917:  MOVWF  72
0918:  BCF    0A.3
0919:  CALL   359
091A:  BSF    0A.3
091B:  MOVF   77,W
091C:  MOVWF  6E
091D:  MOVF   7A,W
091E:  MOVWF  6F
091F:  MOVLW  64
0920:  ADDWF  6E,W
0921:  MOVWF  04
0922:  BCF    03.7
0923:  BTFSC  6F.0
0924:  BSF    03.7
0925:  MOVF   00,W
0926:  MOVWF  70
0927:  BSF    03.5
0928:  CLRF   06
0929:  MOVF   70,W
092A:  BCF    03.5
092B:  MOVWF  06
....................     data1=0x80; 
092C:  MOVLW  80
092D:  MOVWF  62
....................     CHOT(data2,data1); 
092E:  MOVF   63,W
092F:  MOVWF  6E
0930:  MOVF   62,W
0931:  MOVWF  6F
0932:  BCF    0A.3
0933:  CALL   2E2
0934:  BSF    0A.3
....................     delay_ms(1); 
0935:  MOVLW  01
0936:  MOVWF  6E
0937:  BCF    0A.3
0938:  CALL   345
0939:  BSF    0A.3
....................     data1=0x00; 
093A:  CLRF   62
....................     CHOT(data2,data1);  
093B:  MOVF   63,W
093C:  MOVWF  6E
093D:  MOVF   62,W
093E:  MOVWF  6F
093F:  BCF    0A.3
0940:  CALL   2E2
0941:  BSF    0A.3
....................      
....................     output_B(maled[2]); 
0942:  BSF    03.5
0943:  CLRF   06
0944:  BCF    03.5
0945:  MOVF   66,W
0946:  MOVWF  06
....................     data2=0x01; 
0947:  MOVLW  01
0948:  MOVWF  63
....................     CHOT(data2,data1); 
0949:  MOVF   63,W
094A:  MOVWF  6E
094B:  MOVF   62,W
094C:  MOVWF  6F
094D:  BCF    0A.3
094E:  CALL   2E2
094F:  BSF    0A.3
....................     delay_ms(1); 
0950:  MOVLW  01
0951:  MOVWF  6E
0952:  BCF    0A.3
0953:  CALL   345
0954:  BSF    0A.3
....................     data2=0x00; 
0955:  CLRF   63
....................     CHOT(data2,data1); 
0956:  MOVF   63,W
0957:  MOVWF  6E
0958:  MOVF   62,W
0959:  MOVWF  6F
095A:  BCF    0A.3
095B:  CALL   2E2
095C:  BSF    0A.3
....................     output_B(maled[0]); 
095D:  BSF    03.5
095E:  CLRF   06
095F:  BCF    03.5
0960:  MOVF   64,W
0961:  MOVWF  06
....................     data2=0x02; 
0962:  MOVLW  02
0963:  MOVWF  63
....................     CHOT(data2,data1); 
0964:  MOVF   63,W
0965:  MOVWF  6E
0966:  MOVF   62,W
0967:  MOVWF  6F
0968:  BCF    0A.3
0969:  CALL   2E2
096A:  BSF    0A.3
....................     delay_ms(1); 
096B:  MOVLW  01
096C:  MOVWF  6E
096D:  BCF    0A.3
096E:  CALL   345
096F:  BSF    0A.3
....................     data2=0x00; 
0970:  CLRF   63
....................     CHOT(data2,data1); 
0971:  MOVF   63,W
0972:  MOVWF  6E
0973:  MOVF   62,W
0974:  MOVWF  6F
0975:  BCF    0A.3
0976:  CALL   2E2
0977:  BSF    0A.3
....................     output_B(maled[Nam1]); 
0978:  MOVLW  64
0979:  ADDWF  4A,W
097A:  MOVWF  04
097B:  BCF    03.7
097C:  BTFSC  4B.0
097D:  BSF    03.7
097E:  MOVF   00,W
097F:  MOVWF  6E
0980:  BSF    03.5
0981:  CLRF   06
0982:  BCF    03.5
0983:  MOVF   6E,W
0984:  MOVWF  06
....................     data2=0x04; 
0985:  MOVLW  04
0986:  MOVWF  63
....................     CHOT(data2,data1); 
0987:  MOVF   63,W
0988:  MOVWF  6E
0989:  MOVF   62,W
098A:  MOVWF  6F
098B:  BCF    0A.3
098C:  CALL   2E2
098D:  BSF    0A.3
....................     delay_ms(1); 
098E:  MOVLW  01
098F:  MOVWF  6E
0990:  BCF    0A.3
0991:  CALL   345
0992:  BSF    0A.3
....................     data2=0x00; 
0993:  CLRF   63
....................     CHOT(data2,data1); 
0994:  MOVF   63,W
0995:  MOVWF  6E
0996:  MOVF   62,W
0997:  MOVWF  6F
0998:  BCF    0A.3
0999:  CALL   2E2
099A:  BSF    0A.3
....................     output_B(maled[Nam2]); 
099B:  MOVLW  64
099C:  ADDWF  4C,W
099D:  MOVWF  04
099E:  BCF    03.7
099F:  BTFSC  4D.0
09A0:  BSF    03.7
09A1:  MOVF   00,W
09A2:  MOVWF  6E
09A3:  BSF    03.5
09A4:  CLRF   06
09A5:  BCF    03.5
09A6:  MOVF   6E,W
09A7:  MOVWF  06
....................     data2=0x08; 
09A8:  MOVLW  08
09A9:  MOVWF  63
....................     CHOT(data2,data1); 
09AA:  MOVF   63,W
09AB:  MOVWF  6E
09AC:  MOVF   62,W
09AD:  MOVWF  6F
09AE:  BCF    0A.3
09AF:  CALL   2E2
09B0:  BSF    0A.3
....................     delay_ms(1); 
09B1:  MOVLW  01
09B2:  MOVWF  6E
09B3:  BCF    0A.3
09B4:  CALL   345
09B5:  BSF    0A.3
....................     data2=0x00; 
09B6:  CLRF   63
....................     CHOT(data2,data1); 
09B7:  MOVF   63,W
09B8:  MOVWF  6E
09B9:  MOVF   62,W
09BA:  MOVWF  6F
09BB:  BCF    0A.3
09BC:  CALL   2E2
09BD:  BSF    0A.3
....................      
....................     output_B(maled[Thang1]); 
09BE:  MOVLW  64
09BF:  ADDWF  4E,W
09C0:  MOVWF  04
09C1:  BCF    03.7
09C2:  BTFSC  4F.0
09C3:  BSF    03.7
09C4:  MOVF   00,W
09C5:  MOVWF  6E
09C6:  BSF    03.5
09C7:  CLRF   06
09C8:  BCF    03.5
09C9:  MOVF   6E,W
09CA:  MOVWF  06
....................     data2=0x10; 
09CB:  MOVLW  10
09CC:  MOVWF  63
....................     CHOT(data2,data1); 
09CD:  MOVF   63,W
09CE:  MOVWF  6E
09CF:  MOVF   62,W
09D0:  MOVWF  6F
09D1:  BCF    0A.3
09D2:  CALL   2E2
09D3:  BSF    0A.3
....................     delay_ms(1); 
09D4:  MOVLW  01
09D5:  MOVWF  6E
09D6:  BCF    0A.3
09D7:  CALL   345
09D8:  BSF    0A.3
....................     data2=0x00; 
09D9:  CLRF   63
....................     CHOT(data2,data1); 
09DA:  MOVF   63,W
09DB:  MOVWF  6E
09DC:  MOVF   62,W
09DD:  MOVWF  6F
09DE:  BCF    0A.3
09DF:  CALL   2E2
09E0:  BSF    0A.3
....................     output_B(maled[Thang2]); 
09E1:  MOVLW  64
09E2:  ADDWF  50,W
09E3:  MOVWF  04
09E4:  BCF    03.7
09E5:  BTFSC  51.0
09E6:  BSF    03.7
09E7:  MOVF   00,W
09E8:  MOVWF  6E
09E9:  BSF    03.5
09EA:  CLRF   06
09EB:  BCF    03.5
09EC:  MOVF   6E,W
09ED:  MOVWF  06
....................     data2=0x20; 
09EE:  MOVLW  20
09EF:  MOVWF  63
....................     CHOT(data2,data1); 
09F0:  MOVF   63,W
09F1:  MOVWF  6E
09F2:  MOVF   62,W
09F3:  MOVWF  6F
09F4:  BCF    0A.3
09F5:  CALL   2E2
09F6:  BSF    0A.3
....................     delay_ms(1); 
09F7:  MOVLW  01
09F8:  MOVWF  6E
09F9:  BCF    0A.3
09FA:  CALL   345
09FB:  BSF    0A.3
....................     data2=0x00; 
09FC:  CLRF   63
....................     CHOT(data2,data1); 
09FD:  MOVF   63,W
09FE:  MOVWF  6E
09FF:  MOVF   62,W
0A00:  MOVWF  6F
0A01:  BCF    0A.3
0A02:  CALL   2E2
0A03:  BSF    0A.3
....................  
....................     output_B(maled[Ngay1]); 
0A04:  MOVLW  64
0A05:  ADDWF  52,W
0A06:  MOVWF  04
0A07:  BCF    03.7
0A08:  BTFSC  53.0
0A09:  BSF    03.7
0A0A:  MOVF   00,W
0A0B:  MOVWF  6E
0A0C:  BSF    03.5
0A0D:  CLRF   06
0A0E:  BCF    03.5
0A0F:  MOVF   6E,W
0A10:  MOVWF  06
....................     data2=0x40; 
0A11:  MOVLW  40
0A12:  MOVWF  63
....................     CHOT(data2,data1); 
0A13:  MOVF   63,W
0A14:  MOVWF  6E
0A15:  MOVF   62,W
0A16:  MOVWF  6F
0A17:  BCF    0A.3
0A18:  CALL   2E2
0A19:  BSF    0A.3
....................     delay_ms(1); 
0A1A:  MOVLW  01
0A1B:  MOVWF  6E
0A1C:  BCF    0A.3
0A1D:  CALL   345
0A1E:  BSF    0A.3
....................     data2=0x00; 
0A1F:  CLRF   63
....................     CHOT(data2,data1); 
0A20:  MOVF   63,W
0A21:  MOVWF  6E
0A22:  MOVF   62,W
0A23:  MOVWF  6F
0A24:  BCF    0A.3
0A25:  CALL   2E2
0A26:  BSF    0A.3
....................     output_B(maled[Ngay2]); 
0A27:  MOVLW  64
0A28:  ADDWF  54,W
0A29:  MOVWF  04
0A2A:  BCF    03.7
0A2B:  BTFSC  55.0
0A2C:  BSF    03.7
0A2D:  MOVF   00,W
0A2E:  MOVWF  6E
0A2F:  BSF    03.5
0A30:  CLRF   06
0A31:  BCF    03.5
0A32:  MOVF   6E,W
0A33:  MOVWF  06
....................     data2=0x80; 
0A34:  MOVLW  80
0A35:  MOVWF  63
....................     CHOT(data2,data1); 
0A36:  MOVF   63,W
0A37:  MOVWF  6E
0A38:  MOVF   62,W
0A39:  MOVWF  6F
0A3A:  BCF    0A.3
0A3B:  CALL   2E2
0A3C:  BSF    0A.3
....................     delay_ms(1); 
0A3D:  MOVLW  01
0A3E:  MOVWF  6E
0A3F:  BCF    0A.3
0A40:  CALL   345
0A41:  BSF    0A.3
....................     data2=0x00; 
0A42:  CLRF   63
....................     CHOT(data2,data1); 
0A43:  MOVF   63,W
0A44:  MOVWF  6E
0A45:  MOVF   62,W
0A46:  MOVWF  6F
0A47:  BCF    0A.3
0A48:  CALL   2E2
0A49:  BSF    0A.3
0A4A:  RETURN
.................... } 
....................  
.................... void main() { 
0A4B:  MOVF   03,W
0A4C:  ANDLW  1F
0A4D:  MOVWF  03
0A4E:  MOVLW  FF
0A4F:  MOVWF  20
0A50:  BSF    20.3
0A51:  MOVF   20,W
0A52:  BSF    03.5
0A53:  MOVWF  07
0A54:  BCF    03.5
0A55:  BSF    20.4
0A56:  MOVF   20,W
0A57:  BSF    03.5
0A58:  MOVWF  07
0A59:  MOVLW  31
0A5A:  MOVWF  13
0A5B:  MOVLW  28
0A5C:  BCF    03.5
0A5D:  MOVWF  14
0A5E:  BSF    03.5
0A5F:  BSF    14.7
0A60:  BCF    14.6
0A61:  BCF    03.5
0A62:  CLRF   62
0A63:  CLRF   63
0A64:  BSF    03.5
0A65:  BSF    1F.0
0A66:  BSF    1F.1
0A67:  BSF    1F.2
0A68:  BCF    1F.3
0A69:  MOVLW  07
0A6A:  MOVWF  1C
0A6B:  BCF    03.7
....................   set_tris_C(0x18); 
*
0A81:  MOVLW  18
0A82:  BSF    03.5
0A83:  MOVWF  07
0A84:  BCF    03.5
0A85:  MOVWF  20
....................   set_tris_B(0x00); 
0A86:  MOVLW  00
0A87:  BSF    03.5
0A88:  MOVWF  06
....................   set_tris_D(0xF0); 
0A89:  MOVLW  F0
0A8A:  MOVWF  08
....................   OSC_Enable(); 
0A8B:  BCF    0A.3
0A8C:  BCF    03.5
0A8D:  GOTO   051
0A8E:  BSF    0A.3
....................   SQWE_Set(OUT_1Hz); 
0A8F:  MOVLW  10
0A90:  MOVWF  6E
0A91:  BCF    0A.3
0A92:  GOTO   06F
0A93:  BSF    0A.3
....................   setup_adc(ADC_CLOCK_INTERNAL);       
0A94:  BSF    03.5
0A95:  BCF    1F.6
0A96:  BCF    03.5
0A97:  BSF    1F.6
0A98:  BSF    1F.7
0A99:  BSF    03.5
0A9A:  BSF    1F.7
0A9B:  BCF    03.5
0A9C:  BSF    1F.0
....................   setup_adc_ports(AN0);  
0A9D:  BSF    03.5
0A9E:  BCF    1F.0
0A9F:  BSF    1F.1
0AA0:  BSF    1F.2
0AA1:  BSF    1F.3
....................   set_adc_channel(0); 
0AA2:  MOVLW  00
0AA3:  MOVWF  78
0AA4:  BCF    03.5
0AA5:  MOVF   1F,W
0AA6:  ANDLW  C7
0AA7:  IORWF  78,W
0AA8:  MOVWF  1F
....................   while (true)  
....................   { 
....................     mytime = RTC_Get(); 
0AA9:  BCF    0A.3
0AAA:  GOTO   0BB
0AAB:  BSF    0A.3
0AAC:  MOVF   79,W
0AAD:  MOVWF  29
0AAE:  MOVF   78,W
0AAF:  MOVWF  28
....................     Gio = mytime->hours; 
0AB0:  MOVLW  02
0AB1:  ADDWF  28,W
0AB2:  MOVWF  04
0AB3:  BCF    03.7
0AB4:  BTFSC  29.0
0AB5:  BSF    03.7
0AB6:  CLRF   31
0AB7:  MOVF   00,W
0AB8:  MOVWF  30
....................     Phut = mytime->minutes; 
0AB9:  MOVLW  01
0ABA:  ADDWF  28,W
0ABB:  MOVWF  04
0ABC:  BCF    03.7
0ABD:  BTFSC  29.0
0ABE:  BSF    03.7
0ABF:  CLRF   33
0AC0:  MOVF   00,W
0AC1:  MOVWF  32
....................     Giay = mytime->seconds; 
0AC2:  MOVF   28,W
0AC3:  MOVWF  04
0AC4:  BCF    03.7
0AC5:  BTFSC  29.0
0AC6:  BSF    03.7
0AC7:  CLRF   35
0AC8:  MOVF   00,W
0AC9:  MOVWF  34
....................     Ngay = mytime->day; 
0ACA:  MOVLW  04
0ACB:  ADDWF  28,W
0ACC:  MOVWF  04
0ACD:  BCF    03.7
0ACE:  BTFSC  29.0
0ACF:  BSF    03.7
0AD0:  CLRF   37
0AD1:  MOVF   00,W
0AD2:  MOVWF  36
....................     Thang = mytime->month; 
0AD3:  MOVLW  05
0AD4:  ADDWF  28,W
0AD5:  MOVWF  04
0AD6:  BCF    03.7
0AD7:  BTFSC  29.0
0AD8:  BSF    03.7
0AD9:  CLRF   39
0ADA:  MOVF   00,W
0ADB:  MOVWF  38
....................     Nam = mytime->year; 
0ADC:  MOVLW  06
0ADD:  ADDWF  28,W
0ADE:  MOVWF  04
0ADF:  BCF    03.7
0AE0:  BTFSC  29.0
0AE1:  BSF    03.7
0AE2:  CLRF   3B
0AE3:  MOVF   00,W
0AE4:  MOVWF  3A
....................     C = abs((read_adc() * 4.8875) / 10.0); 
0AE5:  BSF    1F.2
0AE6:  BTFSC  1F.2
0AE7:  GOTO   2E6
0AE8:  MOVF   1E,W
0AE9:  MOVWF  7A
0AEA:  BSF    03.5
0AEB:  MOVF   1E,W
0AEC:  BCF    03.5
0AED:  MOVWF  6E
0AEE:  MOVF   1E,W
0AEF:  MOVWF  6F
0AF0:  MOVWF  71
0AF1:  MOVF   6E,W
0AF2:  MOVWF  70
0AF3:  BCF    0A.3
0AF4:  GOTO   11A
0AF5:  BSF    0A.3
0AF6:  MOVF   7A,W
0AF7:  MOVWF  73
0AF8:  MOVF   79,W
0AF9:  MOVWF  72
0AFA:  MOVF   78,W
0AFB:  MOVWF  71
0AFC:  MOVF   77,W
0AFD:  MOVWF  70
0AFE:  MOVLW  66
0AFF:  MOVWF  7E
0B00:  MOVWF  7D
0B01:  MOVLW  1C
0B02:  MOVWF  7C
0B03:  MOVLW  81
0B04:  MOVWF  7B
0B05:  BCF    0A.3
0B06:  GOTO   139
0B07:  BSF    0A.3
0B08:  MOVF   7A,W
0B09:  MOVWF  71
0B0A:  MOVF   79,W
0B0B:  MOVWF  70
0B0C:  MOVF   78,W
0B0D:  MOVWF  6F
0B0E:  MOVF   77,W
0B0F:  MOVWF  6E
0B10:  MOVF   71,W
0B11:  MOVWF  75
0B12:  MOVF   70,W
0B13:  MOVWF  74
0B14:  MOVF   6F,W
0B15:  MOVWF  73
0B16:  MOVF   6E,W
0B17:  MOVWF  72
0B18:  CLRF   7E
0B19:  CLRF   7D
0B1A:  MOVLW  20
0B1B:  MOVWF  7C
0B1C:  MOVLW  82
0B1D:  MOVWF  7B
0B1E:  BCF    0A.3
0B1F:  GOTO   1C1
0B20:  BSF    0A.3
0B21:  MOVF   7A,W
0B22:  MOVWF  71
0B23:  MOVF   79,W
0B24:  MOVWF  70
0B25:  MOVF   78,W
0B26:  MOVWF  6F
0B27:  MOVF   77,W
0B28:  MOVWF  6E
0B29:  MOVWF  77
0B2A:  MOVF   6F,W
0B2B:  MOVWF  78
0B2C:  MOVF   70,W
0B2D:  MOVWF  79
0B2E:  MOVF   71,W
0B2F:  MOVWF  7A
0B30:  BCF    78.7
0B31:  MOVF   71,W
0B32:  MOVWF  71
0B33:  MOVF   70,W
0B34:  MOVWF  70
0B35:  MOVF   78,W
0B36:  MOVWF  6F
0B37:  MOVF   77,W
0B38:  MOVWF  6E
0B39:  BCF    0A.3
0B3A:  GOTO   29C
0B3B:  BSF    0A.3
0B3C:  MOVF   79,W
0B3D:  MOVWF  2F
0B3E:  MOVF   78,W
0B3F:  MOVWF  2E
....................     hienthi_main(); 
0B40:  BCF    0A.3
0B41:  GOTO   397
0B42:  BSF    0A.3
....................     maphim=quet_phim(); 
0B43:  BCF    0A.3
0B44:  CALL   61E
0B45:  BSF    0A.3
0B46:  MOVF   78,W
0B47:  MOVWF  2A
....................     if (maphim!=0xff) 
0B48:  INCFSZ 2A,W
0B49:  GOTO   34B
0B4A:  GOTO   7F1
....................     { 
....................          if (maphim == 12) 
0B4B:  MOVF   2A,W
0B4C:  SUBLW  0C
0B4D:  BTFSS  03.2
0B4E:  GOTO   7F1
....................          { 
....................             Nam1 = 0, Nam2 = 0, Thang1 = 0, Thang2 = 1, Ngay1 = 0, Ngay2 = 1; 
0B4F:  CLRF   4B
0B50:  CLRF   4A
0B51:  CLRF   4D
0B52:  CLRF   4C
0B53:  CLRF   4F
0B54:  CLRF   4E
0B55:  CLRF   51
0B56:  MOVLW  01
0B57:  MOVWF  50
0B58:  CLRF   53
0B59:  CLRF   52
0B5A:  CLRF   55
0B5B:  MOVWF  54
....................             Gio1 = 0, Gio2 = 0, Phut1 = 0, Phut2 = 0, Giay1 = 0, Giay2 = 0; 
0B5C:  CLRF   57
0B5D:  CLRF   56
0B5E:  CLRF   59
0B5F:  CLRF   58
0B60:  CLRF   5B
0B61:  CLRF   5A
0B62:  CLRF   5D
0B63:  CLRF   5C
0B64:  CLRF   5F
0B65:  CLRF   5E
0B66:  CLRF   61
0B67:  CLRF   60
....................             vonglap_1=1; 
0B68:  MOVWF  2C
....................             vonglap_2=1; 
0B69:  MOVWF  2D
....................             if (vonglap_1==1) 
0B6A:  DECFSZ 2C,W
0B6B:  GOTO   392
....................             { 
....................                while (vonglap_2==1) 
0B6C:  DECFSZ 2D,W
0B6D:  GOTO   392
....................                { 
....................                   hienthi(); 
0B6E:  CALL   000
....................                   maphim=quet_phim(); 
0B6F:  BCF    0A.3
0B70:  CALL   61E
0B71:  BSF    0A.3
0B72:  MOVF   78,W
0B73:  MOVWF  2A
....................                   if (maphim>=1&&maphim<=10) 
0B74:  MOVF   2A,W
0B75:  SUBLW  00
0B76:  BTFSC  03.0
0B77:  GOTO   387
0B78:  MOVF   2A,W
0B79:  SUBLW  0A
0B7A:  BTFSS  03.0
0B7B:  GOTO   387
....................                   { 
....................                      Nam1=phim[maphim-1]; 
0B7C:  MOVLW  01
0B7D:  SUBWF  2A,W
0B7E:  BCF    0A.3
0B7F:  CALL   004
0B80:  BSF    0A.3
0B81:  MOVWF  78
0B82:  CLRF   7A
0B83:  MOVF   78,W
0B84:  MOVWF  4A
0B85:  MOVF   7A,W
0B86:  MOVWF  4B
....................                   } 
....................                   if (maphim==12) 
0B87:  MOVF   2A,W
0B88:  SUBLW  0C
0B89:  BTFSC  03.2
....................                   { 
....................                      vonglap_2=0; 
0B8A:  CLRF   2D
....................                   } 
....................                   if (maphim==11) 
0B8B:  MOVF   2A,W
0B8C:  SUBLW  0B
0B8D:  BTFSS  03.2
0B8E:  GOTO   391
....................                   { 
....................                      vonglap_2=0; 
0B8F:  CLRF   2D
....................                      vonglap_1=0; 
0B90:  CLRF   2C
....................                   } 
0B91:  GOTO   36C
....................                } 
....................             } 
....................             vonglap_2=1; 
0B92:  MOVLW  01
0B93:  MOVWF  2D
....................             if (vonglap_1==1) 
0B94:  DECFSZ 2C,W
0B95:  GOTO   3D4
....................             { 
....................                while (vonglap_2==1) 
0B96:  DECFSZ 2D,W
0B97:  GOTO   3D4
....................                { 
....................                   hienthi(); 
0B98:  CALL   000
....................                   maphim=quet_phim(); 
0B99:  BCF    0A.3
0B9A:  CALL   61E
0B9B:  BSF    0A.3
0B9C:  MOVF   78,W
0B9D:  MOVWF  2A
....................                   if (maphim>=1&&maphim<=10) 
0B9E:  MOVF   2A,W
0B9F:  SUBLW  00
0BA0:  BTFSC  03.0
0BA1:  GOTO   3B1
0BA2:  MOVF   2A,W
0BA3:  SUBLW  0A
0BA4:  BTFSS  03.0
0BA5:  GOTO   3B1
....................                   { 
....................                      Nam2=phim[maphim-1]; 
0BA6:  MOVLW  01
0BA7:  SUBWF  2A,W
0BA8:  BCF    0A.3
0BA9:  CALL   004
0BAA:  BSF    0A.3
0BAB:  MOVWF  78
0BAC:  CLRF   7A
0BAD:  MOVF   78,W
0BAE:  MOVWF  4C
0BAF:  MOVF   7A,W
0BB0:  MOVWF  4D
....................                   } 
....................                   if (maphim==12) 
0BB1:  MOVF   2A,W
0BB2:  SUBLW  0C
0BB3:  BTFSS  03.2
0BB4:  GOTO   3CD
....................                   { 
....................                      vonglap_2=0; 
0BB5:  CLRF   2D
....................                      year = Nam1*10 + Nam2; 
0BB6:  MOVF   4B,W
0BB7:  MOVWF  6F
0BB8:  MOVF   4A,W
0BB9:  MOVWF  6E
0BBA:  CLRF   71
0BBB:  MOVLW  0A
0BBC:  MOVWF  70
0BBD:  BCF    0A.3
0BBE:  CALL   667
0BBF:  BSF    0A.3
0BC0:  MOVF   79,W
0BC1:  MOVWF  6F
0BC2:  MOVF   78,W
0BC3:  MOVWF  6E
0BC4:  MOVF   4C,W
0BC5:  ADDWF  6E,W
0BC6:  MOVWF  46
0BC7:  MOVF   6F,W
0BC8:  MOVWF  47
0BC9:  MOVF   4D,W
0BCA:  BTFSC  03.0
0BCB:  INCFSZ 4D,W
0BCC:  ADDWF  47,F
....................                   } 
....................                   if (maphim==11) 
0BCD:  MOVF   2A,W
0BCE:  SUBLW  0B
0BCF:  BTFSS  03.2
0BD0:  GOTO   3D3
....................                   { 
....................                      vonglap_2=0; 
0BD1:  CLRF   2D
....................                      vonglap_1=0; 
0BD2:  CLRF   2C
....................                   } 
0BD3:  GOTO   396
....................                } 
....................             } 
....................             vonglap_2=1; 
0BD4:  MOVLW  01
0BD5:  MOVWF  2D
....................             if (vonglap_1==1) 
0BD6:  DECFSZ 2C,W
0BD7:  GOTO   408
....................             { 
....................                while (vonglap_2==1) 
0BD8:  DECFSZ 2D,W
0BD9:  GOTO   408
....................                { 
....................                   hienthi(); 
0BDA:  CALL   000
....................                   maphim=quet_phim(); 
0BDB:  BCF    0A.3
0BDC:  CALL   61E
0BDD:  BSF    0A.3
0BDE:  MOVF   78,W
0BDF:  MOVWF  2A
....................                   if (maphim==1||maphim==10) 
0BE0:  DECFSZ 2A,W
0BE1:  GOTO   3E3
0BE2:  GOTO   3E7
0BE3:  MOVF   2A,W
0BE4:  SUBLW  0A
0BE5:  BTFSS  03.2
0BE6:  GOTO   3FD
....................                   { 
....................                      Thang1=phim[maphim-1]; 
0BE7:  MOVLW  01
0BE8:  SUBWF  2A,W
0BE9:  BCF    0A.3
0BEA:  CALL   004
0BEB:  BSF    0A.3
0BEC:  MOVWF  78
0BED:  CLRF   7A
0BEE:  MOVF   78,W
0BEF:  MOVWF  4E
0BF0:  MOVF   7A,W
0BF1:  MOVWF  4F
....................                      if (Thang1==1) 
0BF2:  DECFSZ 4E,W
0BF3:  GOTO   3FA
0BF4:  MOVF   4F,F
0BF5:  BTFSS  03.2
0BF6:  GOTO   3FA
....................                      { 
....................                         Thang2=0; 
0BF7:  CLRF   51
0BF8:  CLRF   50
....................                      } 
0BF9:  GOTO   3FD
....................                      else Thang2=1;  
0BFA:  CLRF   51
0BFB:  MOVLW  01
0BFC:  MOVWF  50
....................                   } 
....................                   if (maphim==12) 
0BFD:  MOVF   2A,W
0BFE:  SUBLW  0C
0BFF:  BTFSC  03.2
....................                   { 
....................                      vonglap_2=0; 
0C00:  CLRF   2D
....................                   } 
....................                   if (maphim==11) 
0C01:  MOVF   2A,W
0C02:  SUBLW  0B
0C03:  BTFSS  03.2
0C04:  GOTO   407
....................                   { 
....................                      vonglap_2=0; 
0C05:  CLRF   2D
....................                      vonglap_1=0; 
0C06:  CLRF   2C
....................                   } 
0C07:  GOTO   3D8
....................                } 
....................             } 
....................             vonglap_2=1; 
0C08:  MOVLW  01
0C09:  MOVWF  2D
....................             if (vonglap_1==1) 
0C0A:  DECFSZ 2C,W
0C0B:  GOTO   46B
....................             { 
....................                while (vonglap_2==1) 
0C0C:  DECFSZ 2D,W
0C0D:  GOTO   46B
....................                { 
....................                   hienthi(); 
0C0E:  CALL   000
....................                   maphim=quet_phim(); 
0C0F:  BCF    0A.3
0C10:  CALL   61E
0C11:  BSF    0A.3
0C12:  MOVF   78,W
0C13:  MOVWF  2A
....................                    
....................                   if (Thang1==1) 
0C14:  DECFSZ 4E,W
0C15:  GOTO   42F
0C16:  MOVF   4F,F
0C17:  BTFSS  03.2
0C18:  GOTO   42F
....................                   { 
....................                      if (maphim==1||maphim==2||maphim==10) 
0C19:  DECFSZ 2A,W
0C1A:  GOTO   41C
0C1B:  GOTO   424
0C1C:  MOVF   2A,W
0C1D:  SUBLW  02
0C1E:  BTFSC  03.2
0C1F:  GOTO   424
0C20:  MOVF   2A,W
0C21:  SUBLW  0A
0C22:  BTFSS  03.2
0C23:  GOTO   42F
....................                      { 
....................                         Thang2=phim[maphim-1]; 
0C24:  MOVLW  01
0C25:  SUBWF  2A,W
0C26:  BCF    0A.3
0C27:  CALL   004
0C28:  BSF    0A.3
0C29:  MOVWF  78
0C2A:  CLRF   7A
0C2B:  MOVF   78,W
0C2C:  MOVWF  50
0C2D:  MOVF   7A,W
0C2E:  MOVWF  51
....................                      } 
....................                   } 
....................                   if (Thang1==0) 
0C2F:  MOVF   4E,F
0C30:  BTFSS  03.2
0C31:  GOTO   448
0C32:  MOVF   4F,F
0C33:  BTFSS  03.2
0C34:  GOTO   448
....................                   { 
....................                      if (maphim>=1&&maphim<=9) 
0C35:  MOVF   2A,W
0C36:  SUBLW  00
0C37:  BTFSC  03.0
0C38:  GOTO   448
0C39:  MOVF   2A,W
0C3A:  SUBLW  09
0C3B:  BTFSS  03.0
0C3C:  GOTO   448
....................                      { 
....................                         Thang2=phim[maphim-1]; 
0C3D:  MOVLW  01
0C3E:  SUBWF  2A,W
0C3F:  BCF    0A.3
0C40:  CALL   004
0C41:  BSF    0A.3
0C42:  MOVWF  78
0C43:  CLRF   7A
0C44:  MOVF   78,W
0C45:  MOVWF  50
0C46:  MOVF   7A,W
0C47:  MOVWF  51
....................                      } 
....................                   } 
....................                   if (maphim==12) 
0C48:  MOVF   2A,W
0C49:  SUBLW  0C
0C4A:  BTFSS  03.2
0C4B:  GOTO   464
....................                   { 
....................                      vonglap_2=0; 
0C4C:  CLRF   2D
....................                      Month=Thang1*10+Thang2; 
0C4D:  MOVF   4F,W
0C4E:  MOVWF  6F
0C4F:  MOVF   4E,W
0C50:  MOVWF  6E
0C51:  CLRF   71
0C52:  MOVLW  0A
0C53:  MOVWF  70
0C54:  BCF    0A.3
0C55:  CALL   667
0C56:  BSF    0A.3
0C57:  MOVF   79,W
0C58:  MOVWF  6F
0C59:  MOVF   78,W
0C5A:  MOVWF  6E
0C5B:  MOVF   50,W
0C5C:  ADDWF  6E,W
0C5D:  MOVWF  44
0C5E:  MOVF   6F,W
0C5F:  MOVWF  45
0C60:  MOVF   51,W
0C61:  BTFSC  03.0
0C62:  INCFSZ 51,W
0C63:  ADDWF  45,F
....................                   } 
....................                   if (maphim==11) 
0C64:  MOVF   2A,W
0C65:  SUBLW  0B
0C66:  BTFSS  03.2
0C67:  GOTO   46A
....................                   { 
....................                      vonglap_2=0; 
0C68:  CLRF   2D
....................                      vonglap_1=0; 
0C69:  CLRF   2C
....................                   } 
0C6A:  GOTO   40C
....................                } 
....................             } 
....................             vonglap_2=1; 
0C6B:  MOVLW  01
0C6C:  MOVWF  2D
....................             if (vonglap_1==1) 
0C6D:  DECFSZ 2C,W
0C6E:  GOTO   4BA
....................             { 
....................                while (vonglap_2==1) 
0C6F:  DECFSZ 2D,W
0C70:  GOTO   4BA
....................                { 
....................                   hienthi(); 
0C71:  CALL   000
....................                   maphim=quet_phim(); 
0C72:  BCF    0A.3
0C73:  CALL   61E
0C74:  BSF    0A.3
0C75:  MOVF   78,W
0C76:  MOVWF  2A
....................                   if (Month==2) 
0C77:  MOVF   44,W
0C78:  SUBLW  02
0C79:  BTFSS  03.2
0C7A:  GOTO   495
0C7B:  MOVF   45,F
0C7C:  BTFSS  03.2
0C7D:  GOTO   495
....................                   { 
....................                      if (maphim==1||maphim==2||maphim==10) 
0C7E:  DECFSZ 2A,W
0C7F:  GOTO   481
0C80:  GOTO   489
0C81:  MOVF   2A,W
0C82:  SUBLW  02
0C83:  BTFSC  03.2
0C84:  GOTO   489
0C85:  MOVF   2A,W
0C86:  SUBLW  0A
0C87:  BTFSS  03.2
0C88:  GOTO   494
....................                      { 
....................                         Ngay1=phim[maphim-1]; 
0C89:  MOVLW  01
0C8A:  SUBWF  2A,W
0C8B:  BCF    0A.3
0C8C:  CALL   004
0C8D:  BSF    0A.3
0C8E:  MOVWF  78
0C8F:  CLRF   7A
0C90:  MOVF   78,W
0C91:  MOVWF  52
0C92:  MOVF   7A,W
0C93:  MOVWF  53
....................                      } 
....................                   } 
0C94:  GOTO   4AF
....................                   else 
....................                   { 
....................                      if (maphim==1||maphim==2||maphim==3||maphim==10) 
0C95:  DECFSZ 2A,W
0C96:  GOTO   498
0C97:  GOTO   4A4
0C98:  MOVF   2A,W
0C99:  SUBLW  02
0C9A:  BTFSC  03.2
0C9B:  GOTO   4A4
0C9C:  MOVF   2A,W
0C9D:  SUBLW  03
0C9E:  BTFSC  03.2
0C9F:  GOTO   4A4
0CA0:  MOVF   2A,W
0CA1:  SUBLW  0A
0CA2:  BTFSS  03.2
0CA3:  GOTO   4AF
....................                      { 
....................                         Ngay1=phim[maphim-1]; 
0CA4:  MOVLW  01
0CA5:  SUBWF  2A,W
0CA6:  BCF    0A.3
0CA7:  CALL   004
0CA8:  BSF    0A.3
0CA9:  MOVWF  78
0CAA:  CLRF   7A
0CAB:  MOVF   78,W
0CAC:  MOVWF  52
0CAD:  MOVF   7A,W
0CAE:  MOVWF  53
....................                      } 
....................                   } 
....................                   if (maphim==12) 
0CAF:  MOVF   2A,W
0CB0:  SUBLW  0C
0CB1:  BTFSC  03.2
....................                   { 
....................                      vonglap_2=0; 
0CB2:  CLRF   2D
....................                   } 
....................                   if (maphim==11) 
0CB3:  MOVF   2A,W
0CB4:  SUBLW  0B
0CB5:  BTFSS  03.2
0CB6:  GOTO   4B9
....................                   { 
....................                      vonglap_2=0; 
0CB7:  CLRF   2D
....................                      vonglap_1=0; 
0CB8:  CLRF   2C
....................                   } 
0CB9:  GOTO   46F
....................                } 
....................             } 
....................             vonglap_2=1; 
0CBA:  MOVLW  01
0CBB:  MOVWF  2D
....................             Year_2=Year+2000; 
0CBC:  MOVLW  D0
0CBD:  ADDWF  46,W
0CBE:  MOVWF  48
0CBF:  MOVF   47,W
0CC0:  MOVWF  49
0CC1:  MOVLW  07
0CC2:  BTFSC  03.0
0CC3:  MOVLW  08
0CC4:  ADDWF  49,F
....................             if (vonglap_1==1) 
0CC5:  DECFSZ 2C,W
0CC6:  GOTO   662
....................             { 
....................                while (vonglap_2==1) 
0CC7:  DECFSZ 2D,W
0CC8:  GOTO   662
....................                { 
....................                   hienthi(); 
0CC9:  CALL   000
....................                   maphim=quet_phim(); 
0CCA:  BCF    0A.3
0CCB:  CALL   61E
0CCC:  BSF    0A.3
0CCD:  MOVF   78,W
0CCE:  MOVWF  2A
....................                   if (Month==1||Month==3||Month==5||Month==7||Month==8||Month==10||Month==12) 
0CCF:  DECFSZ 44,W
0CD0:  GOTO   4D4
0CD1:  MOVF   45,F
0CD2:  BTFSC  03.2
0CD3:  GOTO   4FE
0CD4:  MOVF   44,W
0CD5:  SUBLW  03
0CD6:  BTFSS  03.2
0CD7:  GOTO   4DB
0CD8:  MOVF   45,F
0CD9:  BTFSC  03.2
0CDA:  GOTO   4FE
0CDB:  MOVF   44,W
0CDC:  SUBLW  05
0CDD:  BTFSS  03.2
0CDE:  GOTO   4E2
0CDF:  MOVF   45,F
0CE0:  BTFSC  03.2
0CE1:  GOTO   4FE
0CE2:  MOVF   44,W
0CE3:  SUBLW  07
0CE4:  BTFSS  03.2
0CE5:  GOTO   4E9
0CE6:  MOVF   45,F
0CE7:  BTFSC  03.2
0CE8:  GOTO   4FE
0CE9:  MOVF   44,W
0CEA:  SUBLW  08
0CEB:  BTFSS  03.2
0CEC:  GOTO   4F0
0CED:  MOVF   45,F
0CEE:  BTFSC  03.2
0CEF:  GOTO   4FE
0CF0:  MOVF   44,W
0CF1:  SUBLW  0A
0CF2:  BTFSS  03.2
0CF3:  GOTO   4F7
0CF4:  MOVF   45,F
0CF5:  BTFSC  03.2
0CF6:  GOTO   4FE
0CF7:  MOVF   44,W
0CF8:  SUBLW  0C
0CF9:  BTFSS  03.2
0CFA:  GOTO   54F
0CFB:  MOVF   45,F
0CFC:  BTFSS  03.2
0CFD:  GOTO   54F
....................                   { 
....................                      if (Ngay1==3) 
0CFE:  MOVF   52,W
0CFF:  SUBLW  03
0D00:  BTFSS  03.2
0D01:  GOTO   517
0D02:  MOVF   53,F
0D03:  BTFSS  03.2
0D04:  GOTO   517
....................                      { 
....................                         if (maphim==1||maphim==10)  
0D05:  DECFSZ 2A,W
0D06:  GOTO   508
0D07:  GOTO   50C
0D08:  MOVF   2A,W
0D09:  SUBLW  0A
0D0A:  BTFSS  03.2
0D0B:  GOTO   517
....................                         { 
....................                            Ngay2=phim[maphim-1]; 
0D0C:  MOVLW  01
0D0D:  SUBWF  2A,W
0D0E:  BCF    0A.3
0D0F:  CALL   004
0D10:  BSF    0A.3
0D11:  MOVWF  78
0D12:  CLRF   7A
0D13:  MOVF   78,W
0D14:  MOVWF  54
0D15:  MOVF   7A,W
0D16:  MOVWF  55
....................                         } 
....................                      } 
....................                      if (Ngay1==1||Ngay1==2) 
0D17:  DECFSZ 52,W
0D18:  GOTO   51C
0D19:  MOVF   53,F
0D1A:  BTFSC  03.2
0D1B:  GOTO   523
0D1C:  MOVF   52,W
0D1D:  SUBLW  02
0D1E:  BTFSS  03.2
0D1F:  GOTO   536
0D20:  MOVF   53,F
0D21:  BTFSS  03.2
0D22:  GOTO   536
....................                      { 
....................                         if (maphim>=1&&maphim<=10)  
0D23:  MOVF   2A,W
0D24:  SUBLW  00
0D25:  BTFSC  03.0
0D26:  GOTO   536
0D27:  MOVF   2A,W
0D28:  SUBLW  0A
0D29:  BTFSS  03.0
0D2A:  GOTO   536
....................                         { 
....................                            Ngay2=phim[maphim-1]; 
0D2B:  MOVLW  01
0D2C:  SUBWF  2A,W
0D2D:  BCF    0A.3
0D2E:  CALL   004
0D2F:  BSF    0A.3
0D30:  MOVWF  78
0D31:  CLRF   7A
0D32:  MOVF   78,W
0D33:  MOVWF  54
0D34:  MOVF   7A,W
0D35:  MOVWF  55
....................                         } 
....................                      } 
....................                      if (Ngay1==0) 
0D36:  MOVF   52,F
0D37:  BTFSS  03.2
0D38:  GOTO   54F
0D39:  MOVF   53,F
0D3A:  BTFSS  03.2
0D3B:  GOTO   54F
....................                      { 
....................                         if (maphim>=1&&maphim<=9)  
0D3C:  MOVF   2A,W
0D3D:  SUBLW  00
0D3E:  BTFSC  03.0
0D3F:  GOTO   54F
0D40:  MOVF   2A,W
0D41:  SUBLW  09
0D42:  BTFSS  03.0
0D43:  GOTO   54F
....................                         { 
....................                            Ngay2=phim[maphim-1]; 
0D44:  MOVLW  01
0D45:  SUBWF  2A,W
0D46:  BCF    0A.3
0D47:  CALL   004
0D48:  BSF    0A.3
0D49:  MOVWF  78
0D4A:  CLRF   7A
0D4B:  MOVF   78,W
0D4C:  MOVWF  54
0D4D:  MOVF   7A,W
0D4E:  MOVWF  55
....................                         } 
....................                      } 
....................                   } 
....................                   if (Month==4||Month==6||Month==9||Month==11) 
0D4F:  MOVF   44,W
0D50:  SUBLW  04
0D51:  BTFSS  03.2
0D52:  GOTO   556
0D53:  MOVF   45,F
0D54:  BTFSC  03.2
0D55:  GOTO   56B
0D56:  MOVF   44,W
0D57:  SUBLW  06
0D58:  BTFSS  03.2
0D59:  GOTO   55D
0D5A:  MOVF   45,F
0D5B:  BTFSC  03.2
0D5C:  GOTO   56B
0D5D:  MOVF   44,W
0D5E:  SUBLW  09
0D5F:  BTFSS  03.2
0D60:  GOTO   564
0D61:  MOVF   45,F
0D62:  BTFSC  03.2
0D63:  GOTO   56B
0D64:  MOVF   44,W
0D65:  SUBLW  0B
0D66:  BTFSS  03.2
0D67:  GOTO   5AC
0D68:  MOVF   45,F
0D69:  BTFSS  03.2
0D6A:  GOTO   5AC
....................                   { 
....................                      if (Ngay1==3) Ngay2=0; 
0D6B:  MOVF   52,W
0D6C:  SUBLW  03
0D6D:  BTFSS  03.2
0D6E:  GOTO   574
0D6F:  MOVF   53,F
0D70:  BTFSS  03.2
0D71:  GOTO   574
0D72:  CLRF   55
0D73:  CLRF   54
....................                      if (Ngay1==1||Ngay1==2) 
0D74:  DECFSZ 52,W
0D75:  GOTO   579
0D76:  MOVF   53,F
0D77:  BTFSC  03.2
0D78:  GOTO   580
0D79:  MOVF   52,W
0D7A:  SUBLW  02
0D7B:  BTFSS  03.2
0D7C:  GOTO   593
0D7D:  MOVF   53,F
0D7E:  BTFSS  03.2
0D7F:  GOTO   593
....................                      { 
....................                         if (maphim>=1&&maphim<=10)  
0D80:  MOVF   2A,W
0D81:  SUBLW  00
0D82:  BTFSC  03.0
0D83:  GOTO   593
0D84:  MOVF   2A,W
0D85:  SUBLW  0A
0D86:  BTFSS  03.0
0D87:  GOTO   593
....................                         { 
....................                            Ngay2=phim[maphim-1]; 
0D88:  MOVLW  01
0D89:  SUBWF  2A,W
0D8A:  BCF    0A.3
0D8B:  CALL   004
0D8C:  BSF    0A.3
0D8D:  MOVWF  78
0D8E:  CLRF   7A
0D8F:  MOVF   78,W
0D90:  MOVWF  54
0D91:  MOVF   7A,W
0D92:  MOVWF  55
....................                         } 
....................                      } 
....................                      if (Ngay1==0) 
0D93:  MOVF   52,F
0D94:  BTFSS  03.2
0D95:  GOTO   5AC
0D96:  MOVF   53,F
0D97:  BTFSS  03.2
0D98:  GOTO   5AC
....................                      { 
....................                         if (maphim>=1&&maphim<=9)  
0D99:  MOVF   2A,W
0D9A:  SUBLW  00
0D9B:  BTFSC  03.0
0D9C:  GOTO   5AC
0D9D:  MOVF   2A,W
0D9E:  SUBLW  09
0D9F:  BTFSS  03.0
0DA0:  GOTO   5AC
....................                         { 
....................                            Ngay2=phim[maphim-1]; 
0DA1:  MOVLW  01
0DA2:  SUBWF  2A,W
0DA3:  BCF    0A.3
0DA4:  CALL   004
0DA5:  BSF    0A.3
0DA6:  MOVWF  78
0DA7:  CLRF   7A
0DA8:  MOVF   78,W
0DA9:  MOVWF  54
0DAA:  MOVF   7A,W
0DAB:  MOVWF  55
....................                         } 
....................                      } 
....................                   } 
....................                   if (Month==2) 
0DAC:  MOVF   44,W
0DAD:  SUBLW  02
0DAE:  BTFSS  03.2
0DAF:  GOTO   63F
0DB0:  MOVF   45,F
0DB1:  BTFSS  03.2
0DB2:  GOTO   63F
....................                   { 
....................                      if (Ngay1==0) 
0DB3:  MOVF   52,F
0DB4:  BTFSS  03.2
0DB5:  GOTO   5CC
0DB6:  MOVF   53,F
0DB7:  BTFSS  03.2
0DB8:  GOTO   5CC
....................                      { 
....................                         if (maphim>=1||maphim<=9)  
0DB9:  MOVF   2A,W
0DBA:  SUBLW  00
0DBB:  BTFSS  03.0
0DBC:  GOTO   5C1
0DBD:  MOVF   2A,W
0DBE:  SUBLW  09
0DBF:  BTFSS  03.0
0DC0:  GOTO   5CC
....................                         { 
....................                            Ngay2=phim[maphim-1]; 
0DC1:  MOVLW  01
0DC2:  SUBWF  2A,W
0DC3:  BCF    0A.3
0DC4:  CALL   004
0DC5:  BSF    0A.3
0DC6:  MOVWF  78
0DC7:  CLRF   7A
0DC8:  MOVF   78,W
0DC9:  MOVWF  54
0DCA:  MOVF   7A,W
0DCB:  MOVWF  55
....................                         } 
....................                      } 
....................                      if (Ngay1==1) 
0DCC:  DECFSZ 52,W
0DCD:  GOTO   5E4
0DCE:  MOVF   53,F
0DCF:  BTFSS  03.2
0DD0:  GOTO   5E4
....................                      { 
....................                         if (maphim>=1&&maphim<=10)  
0DD1:  MOVF   2A,W
0DD2:  SUBLW  00
0DD3:  BTFSC  03.0
0DD4:  GOTO   5E4
0DD5:  MOVF   2A,W
0DD6:  SUBLW  0A
0DD7:  BTFSS  03.0
0DD8:  GOTO   5E4
....................                         { 
....................                            Ngay2=phim[maphim-1]; 
0DD9:  MOVLW  01
0DDA:  SUBWF  2A,W
0DDB:  BCF    0A.3
0DDC:  CALL   004
0DDD:  BSF    0A.3
0DDE:  MOVWF  78
0DDF:  CLRF   7A
0DE0:  MOVF   78,W
0DE1:  MOVWF  54
0DE2:  MOVF   7A,W
0DE3:  MOVWF  55
....................                         } 
....................                      } 
....................                      if (Ngay1==2) 
0DE4:  MOVF   52,W
0DE5:  SUBLW  02
0DE6:  BTFSS  03.2
0DE7:  GOTO   63F
0DE8:  MOVF   53,F
0DE9:  BTFSS  03.2
0DEA:  GOTO   63F
....................                      { 
....................                         if ((Year_2)%100!=0&&(Year_2)%4==0) 
0DEB:  MOVF   49,W
0DEC:  MOVWF  71
0DED:  MOVF   48,W
0DEE:  MOVWF  70
0DEF:  CLRF   73
0DF0:  MOVLW  64
0DF1:  MOVWF  72
0DF2:  BCF    0A.3
0DF3:  CALL   2BD
0DF4:  BSF    0A.3
0DF5:  MOVF   77,W
0DF6:  MOVWF  6E
0DF7:  MOVF   7A,W
0DF8:  MOVWF  6F
0DF9:  MOVF   6E,F
0DFA:  BTFSS  03.2
0DFB:  GOTO   5FF
0DFC:  MOVF   6F,F
0DFD:  BTFSC  03.2
0DFE:  GOTO   61D
0DFF:  MOVF   48,W
0E00:  ANDLW  03
0E01:  MOVWF  6E
0E02:  CLRF   6F
0E03:  MOVF   6E,F
0E04:  BTFSS  03.2
0E05:  GOTO   61D
0E06:  MOVF   6F,F
0E07:  BTFSS  03.2
0E08:  GOTO   61D
....................                         { 
....................                            if (maphim>=1&&maphim<=10)  
0E09:  MOVF   2A,W
0E0A:  SUBLW  00
0E0B:  BTFSC  03.0
0E0C:  GOTO   61C
0E0D:  MOVF   2A,W
0E0E:  SUBLW  0A
0E0F:  BTFSS  03.0
0E10:  GOTO   61C
....................                            { 
....................                               Ngay2=phim[maphim-1]; 
0E11:  MOVLW  01
0E12:  SUBWF  2A,W
0E13:  BCF    0A.3
0E14:  CALL   004
0E15:  BSF    0A.3
0E16:  MOVWF  78
0E17:  CLRF   7A
0E18:  MOVF   78,W
0E19:  MOVWF  54
0E1A:  MOVF   7A,W
0E1B:  MOVWF  55
....................                            } 
....................                         } 
0E1C:  GOTO   63F
....................                         else 
....................                         { 
....................                            if (maphim>=1&&maphim<=8)  
0E1D:  MOVF   2A,W
0E1E:  SUBLW  00
0E1F:  BTFSC  03.0
0E20:  GOTO   630
0E21:  MOVF   2A,W
0E22:  SUBLW  08
0E23:  BTFSS  03.0
0E24:  GOTO   630
....................                            { 
....................                               Ngay2=phim[maphim-1]; 
0E25:  MOVLW  01
0E26:  SUBWF  2A,W
0E27:  BCF    0A.3
0E28:  CALL   004
0E29:  BSF    0A.3
0E2A:  MOVWF  78
0E2B:  CLRF   7A
0E2C:  MOVF   78,W
0E2D:  MOVWF  54
0E2E:  MOVF   7A,W
0E2F:  MOVWF  55
....................                            } 
....................                            if (maphim==10)  
0E30:  MOVF   2A,W
0E31:  SUBLW  0A
0E32:  BTFSS  03.2
0E33:  GOTO   63F
....................                            { 
....................                               Ngay2=phim[maphim-1]; 
0E34:  MOVLW  01
0E35:  SUBWF  2A,W
0E36:  BCF    0A.3
0E37:  CALL   004
0E38:  BSF    0A.3
0E39:  MOVWF  78
0E3A:  CLRF   7A
0E3B:  MOVF   78,W
0E3C:  MOVWF  54
0E3D:  MOVF   7A,W
0E3E:  MOVWF  55
....................                            } 
....................                         } 
....................                      } 
....................                   } 
....................                 
....................                   if (maphim==12) 
0E3F:  MOVF   2A,W
0E40:  SUBLW  0C
0E41:  BTFSS  03.2
0E42:  GOTO   65B
....................                   { 
....................                      vonglap_2=0; 
0E43:  CLRF   2D
....................                      Day=Ngay1*10+Ngay2; 
0E44:  MOVF   53,W
0E45:  MOVWF  6F
0E46:  MOVF   52,W
0E47:  MOVWF  6E
0E48:  CLRF   71
0E49:  MOVLW  0A
0E4A:  MOVWF  70
0E4B:  BCF    0A.3
0E4C:  CALL   667
0E4D:  BSF    0A.3
0E4E:  MOVF   79,W
0E4F:  MOVWF  6F
0E50:  MOVF   78,W
0E51:  MOVWF  6E
0E52:  MOVF   54,W
0E53:  ADDWF  6E,W
0E54:  MOVWF  42
0E55:  MOVF   6F,W
0E56:  MOVWF  43
0E57:  MOVF   55,W
0E58:  BTFSC  03.0
0E59:  INCFSZ 55,W
0E5A:  ADDWF  43,F
....................                   } 
....................                   if (maphim==11) 
0E5B:  MOVF   2A,W
0E5C:  SUBLW  0B
0E5D:  BTFSS  03.2
0E5E:  GOTO   661
....................                   { 
....................                      vonglap_2=0; 
0E5F:  CLRF   2D
....................                      vonglap_1=0; 
0E60:  CLRF   2C
....................                   } 
0E61:  GOTO   4C7
....................                } 
....................             } 
....................             //Hours 
....................             vonglap_2=1; 
0E62:  MOVLW  01
0E63:  MOVWF  2D
....................             if (vonglap_1==1) 
0E64:  DECFSZ 2C,W
0E65:  GOTO   68F
....................             { 
....................                while (vonglap_2==1) 
0E66:  DECFSZ 2D,W
0E67:  GOTO   68F
....................                { 
....................                   hienthi(); 
0E68:  CALL   000
....................                   maphim=quet_phim(); 
0E69:  BCF    0A.3
0E6A:  CALL   61E
0E6B:  BSF    0A.3
0E6C:  MOVF   78,W
0E6D:  MOVWF  2A
....................                   if (maphim==1||maphim==2||maphim==10) 
0E6E:  DECFSZ 2A,W
0E6F:  GOTO   671
0E70:  GOTO   679
0E71:  MOVF   2A,W
0E72:  SUBLW  02
0E73:  BTFSC  03.2
0E74:  GOTO   679
0E75:  MOVF   2A,W
0E76:  SUBLW  0A
0E77:  BTFSS  03.2
0E78:  GOTO   684
....................                   { 
....................                      Gio1=phim[maphim-1]; 
0E79:  MOVLW  01
0E7A:  SUBWF  2A,W
0E7B:  BCF    0A.3
0E7C:  CALL   004
0E7D:  BSF    0A.3
0E7E:  MOVWF  78
0E7F:  CLRF   7A
0E80:  MOVF   78,W
0E81:  MOVWF  56
0E82:  MOVF   7A,W
0E83:  MOVWF  57
....................                   } 
....................                   if (maphim==12) 
0E84:  MOVF   2A,W
0E85:  SUBLW  0C
0E86:  BTFSC  03.2
....................                   { 
....................                      vonglap_2=0; 
0E87:  CLRF   2D
....................                   } 
....................                   if (maphim==11) 
0E88:  MOVF   2A,W
0E89:  SUBLW  0B
0E8A:  BTFSS  03.2
0E8B:  GOTO   68E
....................                   { 
....................                      vonglap_2=0; 
0E8C:  CLRF   2D
....................                      vonglap_1=0; 
0E8D:  CLRF   2C
....................                   } 
0E8E:  GOTO   666
....................                } 
....................             } 
....................             vonglap_2=1; 
0E8F:  MOVLW  01
0E90:  MOVWF  2D
....................             if (vonglap_1==1) 
0E91:  DECFSZ 2C,W
0E92:  GOTO   6F3
....................             { 
....................                while (vonglap_2==1) 
0E93:  DECFSZ 2D,W
0E94:  GOTO   6F3
....................                { 
....................                   hienthi(); 
0E95:  CALL   000
....................                   maphim=quet_phim(); 
0E96:  BCF    0A.3
0E97:  CALL   61E
0E98:  BSF    0A.3
0E99:  MOVF   78,W
0E9A:  MOVWF  2A
....................                   if (Gio1==2) 
0E9B:  MOVF   56,W
0E9C:  SUBLW  02
0E9D:  BTFSS  03.2
0E9E:  GOTO   6BD
0E9F:  MOVF   57,F
0EA0:  BTFSS  03.2
0EA1:  GOTO   6BD
....................                   { 
....................                      if (maphim==1||maphim==2||maphim==3||maphim==10) 
0EA2:  DECFSZ 2A,W
0EA3:  GOTO   6A5
0EA4:  GOTO   6B1
0EA5:  MOVF   2A,W
0EA6:  SUBLW  02
0EA7:  BTFSC  03.2
0EA8:  GOTO   6B1
0EA9:  MOVF   2A,W
0EAA:  SUBLW  03
0EAB:  BTFSC  03.2
0EAC:  GOTO   6B1
0EAD:  MOVF   2A,W
0EAE:  SUBLW  0A
0EAF:  BTFSS  03.2
0EB0:  GOTO   6BC
....................                      { 
....................                         Gio2=phim[maphim-1]; 
0EB1:  MOVLW  01
0EB2:  SUBWF  2A,W
0EB3:  BCF    0A.3
0EB4:  CALL   004
0EB5:  BSF    0A.3
0EB6:  MOVWF  78
0EB7:  CLRF   7A
0EB8:  MOVF   78,W
0EB9:  MOVWF  58
0EBA:  MOVF   7A,W
0EBB:  MOVWF  59
....................                      } 
....................                   } 
0EBC:  GOTO   6D0
....................                   else 
....................                   { 
....................                      if (maphim>=1&&maphim<=10) 
0EBD:  MOVF   2A,W
0EBE:  SUBLW  00
0EBF:  BTFSC  03.0
0EC0:  GOTO   6D0
0EC1:  MOVF   2A,W
0EC2:  SUBLW  0A
0EC3:  BTFSS  03.0
0EC4:  GOTO   6D0
....................                      { 
....................                         Gio2=phim[maphim-1]; 
0EC5:  MOVLW  01
0EC6:  SUBWF  2A,W
0EC7:  BCF    0A.3
0EC8:  CALL   004
0EC9:  BSF    0A.3
0ECA:  MOVWF  78
0ECB:  CLRF   7A
0ECC:  MOVF   78,W
0ECD:  MOVWF  58
0ECE:  MOVF   7A,W
0ECF:  MOVWF  59
....................                      } 
....................                   } 
....................                   if (maphim==12) 
0ED0:  MOVF   2A,W
0ED1:  SUBLW  0C
0ED2:  BTFSS  03.2
0ED3:  GOTO   6EC
....................                   { 
....................                      vonglap_2=0; 
0ED4:  CLRF   2D
....................                      Hour = Gio1*10+Gio2; 
0ED5:  MOVF   57,W
0ED6:  MOVWF  6F
0ED7:  MOVF   56,W
0ED8:  MOVWF  6E
0ED9:  CLRF   71
0EDA:  MOVLW  0A
0EDB:  MOVWF  70
0EDC:  BCF    0A.3
0EDD:  CALL   667
0EDE:  BSF    0A.3
0EDF:  MOVF   79,W
0EE0:  MOVWF  6F
0EE1:  MOVF   78,W
0EE2:  MOVWF  6E
0EE3:  MOVF   58,W
0EE4:  ADDWF  6E,W
0EE5:  MOVWF  3C
0EE6:  MOVF   6F,W
0EE7:  MOVWF  3D
0EE8:  MOVF   59,W
0EE9:  BTFSC  03.0
0EEA:  INCFSZ 59,W
0EEB:  ADDWF  3D,F
....................                   } 
....................                   if (maphim==11) 
0EEC:  MOVF   2A,W
0EED:  SUBLW  0B
0EEE:  BTFSS  03.2
0EEF:  GOTO   6F2
....................                   { 
....................                      vonglap_2=0; 
0EF0:  CLRF   2D
....................                      vonglap_1=0; 
0EF1:  CLRF   2C
....................                   } 
0EF2:  GOTO   693
....................                } 
....................             } 
....................             vonglap_2=1; 
0EF3:  MOVLW  01
0EF4:  MOVWF  2D
....................             if (vonglap_1==1) 
0EF5:  DECFSZ 2C,W
0EF6:  GOTO   719
....................             { 
....................                while (vonglap_2==1) 
0EF7:  DECFSZ 2D,W
0EF8:  GOTO   719
....................                { 
....................                   hienthi(); 
0EF9:  CALL   000
....................                   maphim=quet_phim(); 
0EFA:  BCF    0A.3
0EFB:  CALL   61E
0EFC:  BSF    0A.3
0EFD:  MOVF   78,W
0EFE:  MOVWF  2A
....................                   if (maphim>=0&&maphim<=5) 
0EFF:  MOVF   2A,W
0F00:  SUBLW  05
0F01:  BTFSS  03.0
0F02:  GOTO   70E
....................                   { 
....................                      Phut1=phim[maphim-1]; 
0F03:  MOVLW  01
0F04:  SUBWF  2A,W
0F05:  BCF    0A.3
0F06:  CALL   004
0F07:  BSF    0A.3
0F08:  MOVWF  78
0F09:  CLRF   7A
0F0A:  MOVF   78,W
0F0B:  MOVWF  5A
0F0C:  MOVF   7A,W
0F0D:  MOVWF  5B
....................                   } 
....................                    
....................                   if (maphim==12) 
0F0E:  MOVF   2A,W
0F0F:  SUBLW  0C
0F10:  BTFSC  03.2
....................                   { 
....................                      vonglap_2=0; 
0F11:  CLRF   2D
....................                   } 
....................                   if (maphim==11) 
0F12:  MOVF   2A,W
0F13:  SUBLW  0B
0F14:  BTFSS  03.2
0F15:  GOTO   718
....................                   { 
....................                      vonglap_2=0; 
0F16:  CLRF   2D
....................                      vonglap_1=0; 
0F17:  CLRF   2C
....................                   } 
0F18:  GOTO   6F7
....................                } 
....................             } 
....................             vonglap_2=1; 
0F19:  MOVLW  01
0F1A:  MOVWF  2D
....................             if (vonglap_1==1) 
0F1B:  DECFSZ 2C,W
0F1C:  GOTO   757
....................             { 
....................                while (vonglap_2==1) 
0F1D:  DECFSZ 2D,W
0F1E:  GOTO   757
....................                { 
....................                   hienthi(); 
0F1F:  CALL   000
....................                   maphim=quet_phim(); 
0F20:  BCF    0A.3
0F21:  CALL   61E
0F22:  BSF    0A.3
0F23:  MOVF   78,W
0F24:  MOVWF  2A
....................                   if (maphim>=0&&maphim<=10) 
0F25:  MOVF   2A,W
0F26:  SUBLW  0A
0F27:  BTFSS  03.0
0F28:  GOTO   734
....................                   { 
....................                      Phut2=phim[maphim-1]; 
0F29:  MOVLW  01
0F2A:  SUBWF  2A,W
0F2B:  BCF    0A.3
0F2C:  CALL   004
0F2D:  BSF    0A.3
0F2E:  MOVWF  78
0F2F:  CLRF   7A
0F30:  MOVF   78,W
0F31:  MOVWF  5C
0F32:  MOVF   7A,W
0F33:  MOVWF  5D
....................                   } 
....................                   if (maphim==12) 
0F34:  MOVF   2A,W
0F35:  SUBLW  0C
0F36:  BTFSS  03.2
0F37:  GOTO   750
....................                   { 
....................                      vonglap_2=0; 
0F38:  CLRF   2D
....................                      Minute = Phut1*10+Phut2; 
0F39:  MOVF   5B,W
0F3A:  MOVWF  6F
0F3B:  MOVF   5A,W
0F3C:  MOVWF  6E
0F3D:  CLRF   71
0F3E:  MOVLW  0A
0F3F:  MOVWF  70
0F40:  BCF    0A.3
0F41:  CALL   667
0F42:  BSF    0A.3
0F43:  MOVF   79,W
0F44:  MOVWF  6F
0F45:  MOVF   78,W
0F46:  MOVWF  6E
0F47:  MOVF   5C,W
0F48:  ADDWF  6E,W
0F49:  MOVWF  3E
0F4A:  MOVF   6F,W
0F4B:  MOVWF  3F
0F4C:  MOVF   5D,W
0F4D:  BTFSC  03.0
0F4E:  INCFSZ 5D,W
0F4F:  ADDWF  3F,F
....................                   } 
....................                   if (maphim==11) 
0F50:  MOVF   2A,W
0F51:  SUBLW  0B
0F52:  BTFSS  03.2
0F53:  GOTO   756
....................                   { 
....................                      vonglap_2=0; 
0F54:  CLRF   2D
....................                      vonglap_1=0; 
0F55:  CLRF   2C
....................                   } 
0F56:  GOTO   71D
....................                } 
....................             } 
....................             vonglap_2=1; 
0F57:  MOVLW  01
0F58:  MOVWF  2D
....................             if (vonglap_1==1) 
0F59:  DECFSZ 2C,W
0F5A:  GOTO   77D
....................             { 
....................                while (vonglap_2==1) 
0F5B:  DECFSZ 2D,W
0F5C:  GOTO   77D
....................                { 
....................                   hienthi(); 
0F5D:  CALL   000
....................                   maphim=quet_phim(); 
0F5E:  BCF    0A.3
0F5F:  CALL   61E
0F60:  BSF    0A.3
0F61:  MOVF   78,W
0F62:  MOVWF  2A
....................                   if (maphim>=0&&maphim<=5) 
0F63:  MOVF   2A,W
0F64:  SUBLW  05
0F65:  BTFSS  03.0
0F66:  GOTO   772
....................                   { 
....................                      Giay1=phim[maphim-1]; 
0F67:  MOVLW  01
0F68:  SUBWF  2A,W
0F69:  BCF    0A.3
0F6A:  CALL   004
0F6B:  BSF    0A.3
0F6C:  MOVWF  78
0F6D:  CLRF   7A
0F6E:  MOVF   78,W
0F6F:  MOVWF  5E
0F70:  MOVF   7A,W
0F71:  MOVWF  5F
....................                   } 
....................                    
....................                   if (maphim==12) 
0F72:  MOVF   2A,W
0F73:  SUBLW  0C
0F74:  BTFSC  03.2
....................                   { 
....................                      vonglap_2=0; 
0F75:  CLRF   2D
....................                   } 
....................                   if (maphim==11) 
0F76:  MOVF   2A,W
0F77:  SUBLW  0B
0F78:  BTFSS  03.2
0F79:  GOTO   77C
....................                   { 
....................                      vonglap_2=0; 
0F7A:  CLRF   2D
....................                      vonglap_1=0; 
0F7B:  CLRF   2C
....................                   } 
0F7C:  GOTO   75B
....................                } 
....................             } 
....................             vonglap_2=1; 
0F7D:  MOVLW  01
0F7E:  MOVWF  2D
....................             if (vonglap_1==1) 
0F7F:  DECFSZ 2C,W
0F80:  GOTO   7F1
....................             { 
....................                while (vonglap_2==1) 
0F81:  DECFSZ 2D,W
0F82:  GOTO   7F1
....................                { 
....................                   hienthi(); 
0F83:  CALL   000
....................                   maphim=quet_phim(); 
0F84:  BCF    0A.3
0F85:  CALL   61E
0F86:  BSF    0A.3
0F87:  MOVF   78,W
0F88:  MOVWF  2A
....................                   if (maphim>=0&&maphim<=10){ 
0F89:  MOVF   2A,W
0F8A:  SUBLW  0A
0F8B:  BTFSS  03.0
0F8C:  GOTO   798
....................                      Giay2=phim[maphim-1]; 
0F8D:  MOVLW  01
0F8E:  SUBWF  2A,W
0F8F:  BCF    0A.3
0F90:  CALL   004
0F91:  BSF    0A.3
0F92:  MOVWF  78
0F93:  CLRF   7A
0F94:  MOVF   78,W
0F95:  MOVWF  60
0F96:  MOVF   7A,W
0F97:  MOVWF  61
....................                   } 
....................                   if (maphim==12){ 
0F98:  MOVF   2A,W
0F99:  SUBLW  0C
0F9A:  BTFSS  03.2
0F9B:  GOTO   7EA
....................                      vonglap_2=0; 
0F9C:  CLRF   2D
....................                      Second = Giay1*10+Giay2; 
0F9D:  MOVF   5F,W
0F9E:  MOVWF  6F
0F9F:  MOVF   5E,W
0FA0:  MOVWF  6E
0FA1:  CLRF   71
0FA2:  MOVLW  0A
0FA3:  MOVWF  70
0FA4:  BCF    0A.3
0FA5:  CALL   667
0FA6:  BSF    0A.3
0FA7:  MOVF   79,W
0FA8:  MOVWF  6F
0FA9:  MOVF   78,W
0FAA:  MOVWF  6E
0FAB:  MOVF   60,W
0FAC:  ADDWF  6E,W
0FAD:  MOVWF  40
0FAE:  MOVF   6F,W
0FAF:  MOVWF  41
0FB0:  MOVF   61,W
0FB1:  BTFSC  03.0
0FB2:  INCFSZ 61,W
0FB3:  ADDWF  41,F
....................                      mytime->hours = Hour; 
0FB4:  MOVLW  02
0FB5:  ADDWF  28,W
0FB6:  MOVWF  04
0FB7:  BCF    03.7
0FB8:  BTFSC  29.0
0FB9:  BSF    03.7
0FBA:  MOVF   3C,W
0FBB:  MOVWF  00
....................                      mytime->minutes = Minute; 
0FBC:  MOVLW  01
0FBD:  ADDWF  28,W
0FBE:  MOVWF  04
0FBF:  BCF    03.7
0FC0:  BTFSC  29.0
0FC1:  BSF    03.7
0FC2:  MOVF   3E,W
0FC3:  MOVWF  00
....................                      mytime->seconds = Second; 
0FC4:  MOVF   28,W
0FC5:  MOVWF  04
0FC6:  BCF    03.7
0FC7:  BTFSC  29.0
0FC8:  BSF    03.7
0FC9:  MOVF   40,W
0FCA:  MOVWF  00
....................                      mytime->year = Year; 
0FCB:  MOVLW  06
0FCC:  ADDWF  28,W
0FCD:  MOVWF  04
0FCE:  BCF    03.7
0FCF:  BTFSC  29.0
0FD0:  BSF    03.7
0FD1:  MOVF   46,W
0FD2:  MOVWF  00
....................                      mytime->month = Month; 
0FD3:  MOVLW  05
0FD4:  ADDWF  28,W
0FD5:  MOVWF  04
0FD6:  BCF    03.7
0FD7:  BTFSC  29.0
0FD8:  BSF    03.7
0FD9:  MOVF   44,W
0FDA:  MOVWF  00
....................                      mytime->day = Day; 
0FDB:  MOVLW  04
0FDC:  ADDWF  28,W
0FDD:  MOVWF  04
0FDE:  BCF    03.7
0FDF:  BTFSC  29.0
0FE0:  BSF    03.7
0FE1:  MOVF   42,W
0FE2:  MOVWF  00
....................                      RTC_Set(mytime); 
0FE3:  MOVF   29,W
0FE4:  MOVWF  6F
0FE5:  MOVF   28,W
0FE6:  MOVWF  6E
0FE7:  BCF    0A.3
0FE8:  GOTO   6A3
0FE9:  BSF    0A.3
....................                   } 
....................                   if (maphim==11){ 
0FEA:  MOVF   2A,W
0FEB:  SUBLW  0B
0FEC:  BTFSS  03.2
0FED:  GOTO   7F0
....................                      vonglap_2=0; 
0FEE:  CLRF   2D
....................                      vonglap_1=0; 
0FEF:  CLRF   2C
....................                   } 
0FF0:  GOTO   781
....................                } 
....................             } 
....................          } 
....................      } 
0FF1:  GOTO   2A9
....................   } 
.................... } 
....................  
0FF2:  SLEEP
....................  

Configuration Fuses:
   Word  1: 3F72   HS NOWDT PUT BROWNOUT NOLVP NOCPD NOWRT NODEBUG NOPROTECT
